TN:
SF:/home/runner/work/hsmcpp/hsmcpp/source/include/hsmcpp/IHsmEventDispatcher.hpp
FNF:0
FNH:0
DA:26,107
LF:1
LH:1
end_of_record
TN:
SF:/home/runner/work/hsmcpp/hsmcpp/source/include/hsmcpp/hsm.hpp
FN:186,_ZN6hsmcpp24HierarchicalStateMachineI17TrafficLightState17TrafficLightEventE14TransitionInfoC2ES1_S1_NS3_14TransitionTypeERKSt8functionIFvRKSt6vectorINS_7VariantESaIS8_EEEERKS6_IFbSC_EE
FN:186,_ZN6hsmcpp24HierarchicalStateMachineI8AbcState8AbcEventE14TransitionInfoC2ES1_S1_NS3_14TransitionTypeERKSt8functionIFvRKSt6vectorINS_7VariantESaIS8_EEEERKS6_IFbSC_EE
FN:186,_ZN6hsmcpp24HierarchicalStateMachineI13AsyncHsmState13AsyncHsmEventE14TransitionInfoC2ES1_S1_NS3_14TransitionTypeERKSt8functionIFvRKSt6vectorINS_7VariantESaIS8_EEEERKS6_IFbSC_EE
FN:199,_ZN6hsmcpp24HierarchicalStateMachineI17TrafficLightState17TrafficLightEventE14TransitionInfoC2ES1_S1_NS3_14TransitionTypeERKSt8functionIFvRKSt6vectorINS_7VariantESaIS8_EEEERKS6_IFbSC_EEb
FN:199,_ZN6hsmcpp24HierarchicalStateMachineI13AsyncHsmState13AsyncHsmEventE14TransitionInfoC2ES1_S1_NS3_14TransitionTypeERKSt8functionIFvRKSt6vectorINS_7VariantESaIS8_EEEERKS6_IFbSC_EEb
FN:199,_ZN6hsmcpp24HierarchicalStateMachineI8AbcState8AbcEventE14TransitionInfoC2ES1_S1_NS3_14TransitionTypeERKSt8functionIFvRKSt6vectorINS_7VariantESaIS8_EEEERKS6_IFbSC_EEb
FN:538,_ZN6hsmcpp24HierarchicalStateMachineI13AsyncHsmState13AsyncHsmEventE16dumpActiveStatesEv
FN:538,_ZN6hsmcpp24HierarchicalStateMachineI17TrafficLightState17TrafficLightEventE16dumpActiveStatesEv
FN:538,_ZN6hsmcpp24HierarchicalStateMachineI8AbcState8AbcEventE16dumpActiveStatesEv
FN:602,_ZN6hsmcpp24HierarchicalStateMachineI17TrafficLightState17TrafficLightEventEC2ES1_
FN:602,_ZN6hsmcpp24HierarchicalStateMachineI13AsyncHsmState13AsyncHsmEventEC2ES1_
FN:602,_ZN6hsmcpp24HierarchicalStateMachineI8AbcState8AbcEventEC2ES1_
FN:609,_ZN6hsmcpp24HierarchicalStateMachineI13AsyncHsmState13AsyncHsmEventED0Ev
FN:609,_ZN6hsmcpp24HierarchicalStateMachineI17TrafficLightState17TrafficLightEventED2Ev
FN:609,_ZN6hsmcpp24HierarchicalStateMachineI17TrafficLightState17TrafficLightEventED0Ev
FN:609,_ZN6hsmcpp24HierarchicalStateMachineI13AsyncHsmState13AsyncHsmEventED2Ev
FN:609,_ZN6hsmcpp24HierarchicalStateMachineI8AbcState8AbcEventED2Ev
FN:609,_ZN6hsmcpp24HierarchicalStateMachineI8AbcState8AbcEventED0Ev
FN:624,_ZN6hsmcpp24HierarchicalStateMachineI8AbcState8AbcEventE10initializeERKSt10shared_ptrINS_19IHsmEventDispatcherEE
FN:624,_ZN6hsmcpp24HierarchicalStateMachineI13AsyncHsmState13AsyncHsmEventE10initializeERKSt10shared_ptrINS_19IHsmEventDispatcherEE
FN:624,_ZN6hsmcpp24HierarchicalStateMachineI17TrafficLightState17TrafficLightEventE10initializeERKSt10shared_ptrINS_19IHsmEventDispatcherEE
FN:685,_ZN6hsmcpp24HierarchicalStateMachineI8AbcState8AbcEventE7releaseEv
FN:685,_ZN6hsmcpp24HierarchicalStateMachineI17TrafficLightState17TrafficLightEventE7releaseEv
FN:685,_ZN6hsmcpp24HierarchicalStateMachineI13AsyncHsmState13AsyncHsmEventE7releaseEv
FN:720,_ZN6hsmcpp24HierarchicalStateMachineI17TrafficLightState17TrafficLightEventE13registerStateI15TrafficLightHsmEEvS1_PT_MS6_FvRKSt6vectorINS_7VariantESaIS9_EEEMS6_FbSD_EMS6_FbvE
FN:720,_ZN6hsmcpp24HierarchicalStateMachineI13AsyncHsmState13AsyncHsmEventE13registerStateI8AsyncHsmEEvS1_PT_MS6_FvRKSt6vectorINS_7VariantESaIS9_EEEMS6_FbSD_EMS6_FbvE
FN:720,_ZN6hsmcpp24HierarchicalStateMachineI8AbcState8AbcEventE13registerStateI6ABCHsmEEvS1_PT_MS6_FvRKSt6vectorINS_7VariantESaIS9_EEEMS6_FbSD_EMS6_FbvE
FN:752,_ZN6hsmcpp24HierarchicalStateMachineI8AbcState8AbcEventE13registerStateES1_St8functionIFvRKSt6vectorINS_7VariantESaIS6_EEEES4_IFbSA_EES4_IFbvEE
FN:752,_ZN6hsmcpp24HierarchicalStateMachineI17TrafficLightState17TrafficLightEventE13registerStateES1_St8functionIFvRKSt6vectorINS_7VariantESaIS6_EEEES4_IFbSA_EES4_IFbvEE
FN:752,_ZN6hsmcpp24HierarchicalStateMachineI13AsyncHsmState13AsyncHsmEventE13registerStateES1_St8functionIFvRKSt6vectorINS_7VariantESaIS6_EEEES4_IFbSA_EES4_IFbvEE
FN:791,_ZN6hsmcpp24HierarchicalStateMachineI8AbcState8AbcEventE18registerFinalStateES1_S2_St8functionIFvRKSt6vectorINS_7VariantESaIS6_EEEES4_IFbSA_EES4_IFbvEE
FN:803,_ZN6hsmcpp24HierarchicalStateMachineI8AbcState8AbcEventE15registerHistoryI6ABCHsmEEvS1_S1_NS3_11HistoryTypeES1_PT_MS7_FvRKSt6vectorINS_7VariantESaISA_EEE
FN:824,_ZN6hsmcpp24HierarchicalStateMachineI8AbcState8AbcEventE15registerHistoryES1_S1_NS3_11HistoryTypeES1_St8functionIFvRKSt6vectorINS_7VariantESaIS7_EEEE
FN:835,_ZN6hsmcpp24HierarchicalStateMachineI8AbcState8AbcEventE16registerSubstateES1_S1_
FN:835,_ZN6hsmcpp24HierarchicalStateMachineI17TrafficLightState17TrafficLightEventE16registerSubstateES1_S1_
FN:835,_ZN6hsmcpp24HierarchicalStateMachineI13AsyncHsmState13AsyncHsmEventE16registerSubstateES1_S1_
FN:877,_ZN6hsmcpp24HierarchicalStateMachineI13AsyncHsmState13AsyncHsmEventE16registerSubstateES1_S1_bS2_RKSt8functionIFbRKSt6vectorINS_7VariantESaIS6_EEEEb
FN:877,_ZN6hsmcpp24HierarchicalStateMachineI8AbcState8AbcEventE16registerSubstateES1_S1_bS2_RKSt8functionIFbRKSt6vectorINS_7VariantESaIS6_EEEEb
FN:877,_ZN6hsmcpp24HierarchicalStateMachineI17TrafficLightState17TrafficLightEventE16registerSubstateES1_S1_bS2_RKSt8functionIFbRKSt6vectorINS_7VariantESaIS6_EEEEb
FN:951,_ZN6hsmcpp24HierarchicalStateMachineI8AbcState8AbcEventE19registerStateActionIJiEEEbS1_NS3_18StateActionTriggerENS3_11StateActionEDpT_
FN:951,_ZN6hsmcpp24HierarchicalStateMachineI8AbcState8AbcEventE19registerStateActionIJiiPKcEEEbS1_NS3_18StateActionTriggerENS3_11StateActionEDpT_
FN:951,_ZN6hsmcpp24HierarchicalStateMachineI8AbcState8AbcEventE19registerStateActionIJiibEEEbS1_NS3_18StateActionTriggerENS3_11StateActionEDpT_
FN:997,_ZN6hsmcpp24HierarchicalStateMachineI17TrafficLightState17TrafficLightEventE18registerTransitionI15TrafficLightHsmEEvS1_S1_S2_PT_MS6_FvRKSt6vectorINS_7VariantESaIS9_EEEMS6_FbSD_Eb
FN:997,_ZN6hsmcpp24HierarchicalStateMachineI8AbcState8AbcEventE18registerTransitionI6ABCHsmEEvS1_S1_S2_PT_MS6_FvRKSt6vectorINS_7VariantESaIS9_EEEMS6_FbSD_Eb
FN:1025,_ZN6hsmcpp24HierarchicalStateMachineI17TrafficLightState17TrafficLightEventE18registerTransitionES1_S1_S2_St8functionIFvRKSt6vectorINS_7VariantESaIS6_EEEES4_IFbSA_EEb
FN:1025,_ZN6hsmcpp24HierarchicalStateMachineI13AsyncHsmState13AsyncHsmEventE18registerTransitionES1_S1_S2_St8functionIFvRKSt6vectorINS_7VariantESaIS6_EEEES4_IFbSA_EEb
FN:1025,_ZN6hsmcpp24HierarchicalStateMachineI8AbcState8AbcEventE18registerTransitionES1_S1_S2_St8functionIFvRKSt6vectorINS_7VariantESaIS6_EEEES4_IFbSA_EEb
FN:1042,_ZN6hsmcpp24HierarchicalStateMachineI17TrafficLightState17TrafficLightEventE22registerSelfTransitionI15TrafficLightHsmEEvS1_S2_NS3_14TransitionTypeEPT_MS7_FvRKSt6vectorINS_7VariantESaISA_EEEMS7_FbSE_Eb
FN:1042,_ZN6hsmcpp24HierarchicalStateMachineI8AbcState8AbcEventE22registerSelfTransitionI6ABCHsmEEvS1_S2_NS3_14TransitionTypeEPT_MS7_FvRKSt6vectorINS_7VariantESaISA_EEEMS7_FbSE_Eb
FN:1069,_ZN6hsmcpp24HierarchicalStateMachineI17TrafficLightState17TrafficLightEventE22registerSelfTransitionES1_S2_NS3_14TransitionTypeESt8functionIFvRKSt6vectorINS_7VariantESaIS7_EEEES5_IFbSB_EEb
FN:1069,_ZN6hsmcpp24HierarchicalStateMachineI8AbcState8AbcEventE22registerSelfTransitionES1_S2_NS3_14TransitionTypeESt8functionIFvRKSt6vectorINS_7VariantESaIS7_EEEES5_IFbSB_EEb
FN:1110,_ZN6hsmcpp24HierarchicalStateMachineI17TrafficLightState17TrafficLightEventE12transitionExIJEEEbS2_bbiDpT_
FN:1110,_ZN6hsmcpp24HierarchicalStateMachineI17TrafficLightState17TrafficLightEventE12transitionExIJiPKcdbEEEbS2_bbiDpT_
FN:1110,_ZN6hsmcpp24HierarchicalStateMachineI17TrafficLightState17TrafficLightEventE12transitionExIJPKcEEEbS2_bbiDpT_
FN:1110,_ZN6hsmcpp24HierarchicalStateMachineI8AbcState8AbcEventE12transitionExIJEEEbS2_bbiDpT_
FN:1110,_ZN6hsmcpp24HierarchicalStateMachineI8AbcState8AbcEventE12transitionExIJiEEEbS2_bbiDpT_
FN:1110,_ZN6hsmcpp24HierarchicalStateMachineI17TrafficLightState17TrafficLightEventE12transitionExIJiEEEbS2_bbiDpT_
FN:1110,_ZN6hsmcpp24HierarchicalStateMachineI13AsyncHsmState13AsyncHsmEventE12transitionExIJEEEbS2_bbiDpT_
FN:1110,_ZN6hsmcpp24HierarchicalStateMachineI8AbcState8AbcEventE12transitionExIJPKciEEEbS2_bbiDpT_
FN:1145,_ZN6hsmcpp24HierarchicalStateMachineI17TrafficLightState17TrafficLightEventE25transitionExWithArgsArrayES2_bbiRKSt6vectorINS_7VariantESaIS5_EE
FN:1145,_ZN6hsmcpp24HierarchicalStateMachineI13AsyncHsmState13AsyncHsmEventE25transitionExWithArgsArrayES2_bbiRKSt6vectorINS_7VariantESaIS5_EE
FN:1145,_ZN6hsmcpp24HierarchicalStateMachineI8AbcState8AbcEventE25transitionExWithArgsArrayES2_bbiRKSt6vectorINS_7VariantESaIS5_EE
FN:1229,_ZN6hsmcpp24HierarchicalStateMachineI17TrafficLightState17TrafficLightEventE20isTransitionPossibleIJEEEbS2_DpT_
FN:1287,_ZN6hsmcpp24HierarchicalStateMachineI13AsyncHsmState13AsyncHsmEventE13handleStartupEv
FN:1287,_ZN6hsmcpp24HierarchicalStateMachineI8AbcState8AbcEventE13handleStartupEv
FN:1287,_ZN6hsmcpp24HierarchicalStateMachineI17TrafficLightState17TrafficLightEventE13handleStartupEv
FN:1326,_ZN6hsmcpp24HierarchicalStateMachineI8AbcState8AbcEventE15makeVariantListIJRiS5_RbEEEvRSt6vectorINS_7VariantESaIS8_EEDpOT_
FN:1326,_ZN6hsmcpp24HierarchicalStateMachineI17TrafficLightState17TrafficLightEventE15makeVariantListIJRiEEEvRSt6vectorINS_7VariantESaIS7_EEDpOT_
FN:1326,_ZN6hsmcpp24HierarchicalStateMachineI8AbcState8AbcEventE15makeVariantListIJRiEEEvRSt6vectorINS_7VariantESaIS7_EEDpOT_
FN:1326,_ZN6hsmcpp24HierarchicalStateMachineI17TrafficLightState17TrafficLightEventE15makeVariantListIJRPKcEEEvRSt6vectorINS_7VariantESaIS9_EEDpOT_
FN:1326,_ZN6hsmcpp24HierarchicalStateMachineI8AbcState8AbcEventE15makeVariantListIJRiS5_RPKcEEEvRSt6vectorINS_7VariantESaISA_EEDpOT_
FN:1326,_ZN6hsmcpp24HierarchicalStateMachineI17TrafficLightState17TrafficLightEventE15makeVariantListIJRiRPKcRdRbEEEvRSt6vectorINS_7VariantESaISC_EEDpOT_
FN:1326,_ZN6hsmcpp24HierarchicalStateMachineI8AbcState8AbcEventE15makeVariantListIJRPKcRiEEEvRSt6vectorINS_7VariantESaISA_EEDpOT_
FN:1333,_ZN6hsmcpp24HierarchicalStateMachineI8AbcState8AbcEventE14dispatchEventsEv
FN:1333,_ZN6hsmcpp24HierarchicalStateMachineI17TrafficLightState17TrafficLightEventE14dispatchEventsEv
FN:1333,_ZN6hsmcpp24HierarchicalStateMachineI13AsyncHsmState13AsyncHsmEventE14dispatchEventsEv
FN:1362,_ZN6hsmcpp24HierarchicalStateMachineI8AbcState8AbcEventE18dispatchTimerEventEi
FN:1362,_ZN6hsmcpp24HierarchicalStateMachineI13AsyncHsmState13AsyncHsmEventE18dispatchTimerEventEi
FN:1362,_ZN6hsmcpp24HierarchicalStateMachineI17TrafficLightState17TrafficLightEventE18dispatchTimerEventEi
FN:1374,_ZN6hsmcpp24HierarchicalStateMachineI8AbcState8AbcEventE14onStateExitingES1_
FN:1374,_ZN6hsmcpp24HierarchicalStateMachineI13AsyncHsmState13AsyncHsmEventE14onStateExitingES1_
FN:1374,_ZN6hsmcpp24HierarchicalStateMachineI17TrafficLightState17TrafficLightEventE14onStateExitingES1_
FN:1396,_ZN6hsmcpp24HierarchicalStateMachineI8AbcState8AbcEventE15onStateEnteringES1_RKSt6vectorINS_7VariantESaIS5_EE
FN:1396,_ZN6hsmcpp24HierarchicalStateMachineI13AsyncHsmState13AsyncHsmEventE15onStateEnteringES1_RKSt6vectorINS_7VariantESaIS5_EE
FN:1396,_ZN6hsmcpp24HierarchicalStateMachineI17TrafficLightState17TrafficLightEventE15onStateEnteringES1_RKSt6vectorINS_7VariantESaIS5_EE
FN:1425,_ZN6hsmcpp24HierarchicalStateMachineI17TrafficLightState17TrafficLightEventE14onStateChangedES1_RKSt6vectorINS_7VariantESaIS5_EE
FN:1425,_ZN6hsmcpp24HierarchicalStateMachineI13AsyncHsmState13AsyncHsmEventE14onStateChangedES1_RKSt6vectorINS_7VariantESaIS5_EE
FN:1425,_ZN6hsmcpp24HierarchicalStateMachineI8AbcState8AbcEventE14onStateChangedES1_RKSt6vectorINS_7VariantESaIS5_EE
FN:1443,_ZN6hsmcpp24HierarchicalStateMachineI13AsyncHsmState13AsyncHsmEventE18executeStateActionES1_NS3_18StateActionTriggerE
FN:1443,_ZN6hsmcpp24HierarchicalStateMachineI17TrafficLightState17TrafficLightEventE18executeStateActionES1_NS3_18StateActionTriggerE
FN:1443,_ZN6hsmcpp24HierarchicalStateMachineI8AbcState8AbcEventE18executeStateActionES1_NS3_18StateActionTriggerE
FN:1530,_ZN6hsmcpp24HierarchicalStateMachineI17TrafficLightState17TrafficLightEventE12isSubstateOfES1_S1_
FN:1530,_ZN6hsmcpp24HierarchicalStateMachineI8AbcState8AbcEventE12isSubstateOfES1_S1_
FN:1530,_ZN6hsmcpp24HierarchicalStateMachineI13AsyncHsmState13AsyncHsmEventE12isSubstateOfES1_S1_
FN:1568,_ZN6hsmcpp24HierarchicalStateMachineI13AsyncHsmState13AsyncHsmEventE13updateHistoryES1_RKNSt7__cxx114listIS1_SaIS1_EEE
FN:1568,_ZN6hsmcpp24HierarchicalStateMachineI17TrafficLightState17TrafficLightEventE13updateHistoryES1_RKNSt7__cxx114listIS1_SaIS1_EEE
FN:1568,_ZN6hsmcpp24HierarchicalStateMachineI8AbcState8AbcEventE13updateHistoryES1_RKNSt7__cxx114listIS1_SaIS1_EEE
FN:1648,_ZN6hsmcpp24HierarchicalStateMachineI17TrafficLightState17TrafficLightEventE26checkTransitionPossibilityIJEEEbS1_S2_DpT_
FN:1698,_ZN6hsmcpp24HierarchicalStateMachineI13AsyncHsmState13AsyncHsmEventE20findTransitionTargetES1_S2_RKSt6vectorINS_7VariantESaIS5_EEbRNSt7__cxx114listINS3_14TransitionInfoESaISC_EEE
FN:1698,_ZN6hsmcpp24HierarchicalStateMachineI8AbcState8AbcEventE20findTransitionTargetES1_S2_RKSt6vectorINS_7VariantESaIS5_EEbRNSt7__cxx114listINS3_14TransitionInfoESaISC_EEE
FN:1698,_ZN6hsmcpp24HierarchicalStateMachineI17TrafficLightState17TrafficLightEventE20findTransitionTargetES1_S2_RKSt6vectorINS_7VariantESaIS5_EEbRNSt7__cxx114listINS3_14TransitionInfoESaISC_EEE
FN:1787,_ZN6hsmcpp24HierarchicalStateMachineI17TrafficLightState17TrafficLightEventE12doTransitionERKNS3_16PendingEventInfoE
FN:1787,_ZN6hsmcpp24HierarchicalStateMachineI13AsyncHsmState13AsyncHsmEventE12doTransitionERKNS3_16PendingEventInfoE
FN:1787,_ZN6hsmcpp24HierarchicalStateMachineI8AbcState8AbcEventE12doTransitionERKNS3_16PendingEventInfoE
FN:1850,_ZN6hsmcpp24HierarchicalStateMachineI13AsyncHsmState13AsyncHsmEventE22handleSingleTransitionES1_RKNS3_16PendingEventInfoE
FN:1850,_ZN6hsmcpp24HierarchicalStateMachineI8AbcState8AbcEventE22handleSingleTransitionES1_RKNS3_16PendingEventInfoE
FN:1850,_ZN6hsmcpp24HierarchicalStateMachineI17TrafficLightState17TrafficLightEventE22handleSingleTransitionES1_RKNS3_16PendingEventInfoE
FN:2256,_ZN6hsmcpp24HierarchicalStateMachineI8AbcState8AbcEventE18clearPendingEventsEv
FN:2256,_ZN6hsmcpp24HierarchicalStateMachineI13AsyncHsmState13AsyncHsmEventE18clearPendingEventsEv
FN:2256,_ZN6hsmcpp24HierarchicalStateMachineI17TrafficLightState17TrafficLightEventE18clearPendingEventsEv
FN:2276,_ZN6hsmcpp24HierarchicalStateMachineI8AbcState8AbcEventE16PendingEventInfoD2Ev
FN:2276,_ZN6hsmcpp24HierarchicalStateMachineI13AsyncHsmState13AsyncHsmEventE16PendingEventInfoD2Ev
FN:2276,_ZN6hsmcpp24HierarchicalStateMachineI17TrafficLightState17TrafficLightEventE16PendingEventInfoD2Ev
FN:2288,_ZN6hsmcpp24HierarchicalStateMachineI13AsyncHsmState13AsyncHsmEventE16PendingEventInfo8initLockEv
FN:2288,_ZN6hsmcpp24HierarchicalStateMachineI17TrafficLightState17TrafficLightEventE16PendingEventInfo8initLockEv
FN:2288,_ZN6hsmcpp24HierarchicalStateMachineI8AbcState8AbcEventE16PendingEventInfo8initLockEv
FN:2300,_ZN6hsmcpp24HierarchicalStateMachineI8AbcState8AbcEventE16PendingEventInfo11releaseLockEv
FN:2300,_ZN6hsmcpp24HierarchicalStateMachineI17TrafficLightState17TrafficLightEventE16PendingEventInfo11releaseLockEv
FN:2300,_ZN6hsmcpp24HierarchicalStateMachineI13AsyncHsmState13AsyncHsmEventE16PendingEventInfo11releaseLockEv
FN:2318,_ZN6hsmcpp24HierarchicalStateMachineI13AsyncHsmState13AsyncHsmEventE16PendingEventInfo4waitEi
FN:2318,_ZN6hsmcpp24HierarchicalStateMachineI8AbcState8AbcEventE16PendingEventInfo4waitEi
FN:2318,_ZN6hsmcpp24HierarchicalStateMachineI17TrafficLightState17TrafficLightEventE16PendingEventInfo4waitEi
FN:2377,_ZNK6hsmcpp24HierarchicalStateMachineI13AsyncHsmState13AsyncHsmEventE14getEntryPointsES1_S2_RKSt6vectorINS_7VariantESaIS5_EERNSt7__cxx114listIS1_SaIS1_EEE
FN:2377,_ZNK6hsmcpp24HierarchicalStateMachineI8AbcState8AbcEventE14getEntryPointsES1_S2_RKSt6vectorINS_7VariantESaIS5_EERNSt7__cxx114listIS1_SaIS1_EEE
FN:2377,_ZNK6hsmcpp24HierarchicalStateMachineI17TrafficLightState17TrafficLightEventE14getEntryPointsES1_S2_RKSt6vectorINS_7VariantESaIS5_EERNSt7__cxx114listIS1_SaIS1_EEE
FN:2400,_ZN6hsmcpp24HierarchicalStateMachineI13AsyncHsmState13AsyncHsmEventE18replaceActiveStateES1_S1_
FN:2400,_ZN6hsmcpp24HierarchicalStateMachineI8AbcState8AbcEventE18replaceActiveStateES1_S1_
FN:2400,_ZN6hsmcpp24HierarchicalStateMachineI17TrafficLightState17TrafficLightEventE18replaceActiveStateES1_S1_
FN:2415,_ZN6hsmcpp24HierarchicalStateMachineI13AsyncHsmState13AsyncHsmEventE14addActiveStateES1_
FN:2415,_ZN6hsmcpp24HierarchicalStateMachineI17TrafficLightState17TrafficLightEventE14addActiveStateES1_
FN:2415,_ZN6hsmcpp24HierarchicalStateMachineI8AbcState8AbcEventE14addActiveStateES1_
FN:2479,_ZNK6hsmcpp24HierarchicalStateMachineI17TrafficLightState17TrafficLightEventE12getStateNameB5cxx11ES1_
FN:2479,_ZNK6hsmcpp24HierarchicalStateMachineI8AbcState8AbcEventE12getStateNameB5cxx11ES1_
FN:2479,_ZNK6hsmcpp24HierarchicalStateMachineI13AsyncHsmState13AsyncHsmEventE12getStateNameB5cxx11ES1_
FN:2492,_ZNK6hsmcpp24HierarchicalStateMachineI17TrafficLightState17TrafficLightEventE12getEventNameB5cxx11ES2_
FN:2492,_ZNK6hsmcpp24HierarchicalStateMachineI13AsyncHsmState13AsyncHsmEventE12getEventNameB5cxx11ES2_
FN:2492,_ZNK6hsmcpp24HierarchicalStateMachineI8AbcState8AbcEventE12getEventNameB5cxx11ES2_
FN:2551,_ZN6hsmcpp24HierarchicalStateMachineI13AsyncHsmState13AsyncHsmEventE12logHsmActionENS3_12HsmLogActionES1_S1_S2_bRKSt6vectorINS_7VariantESaIS6_EE
FN:2551,_ZN6hsmcpp24HierarchicalStateMachineI8AbcState8AbcEventE12logHsmActionENS3_12HsmLogActionES1_S1_S2_bRKSt6vectorINS_7VariantESaIS6_EE
FN:2551,_ZN6hsmcpp24HierarchicalStateMachineI17TrafficLightState17TrafficLightEventE12logHsmActionENS3_12HsmLogActionES1_S1_S2_bRKSt6vectorINS_7VariantESaIS6_EE
FNDA:1231,_ZN6hsmcpp24HierarchicalStateMachineI8AbcState8AbcEventE25transitionExWithArgsArrayES2_bbiRKSt6vectorINS_7VariantESaIS5_EE
FNDA:76,_ZN6hsmcpp24HierarchicalStateMachineI17TrafficLightState17TrafficLightEventE12logHsmActionENS3_12HsmLogActionES1_S1_S2_bRKSt6vectorINS_7VariantESaIS6_EE
FNDA:11,_ZN6hsmcpp24HierarchicalStateMachineI13AsyncHsmState13AsyncHsmEventE22handleSingleTransitionES1_RKNS3_16PendingEventInfoE
FNDA:9,_ZN6hsmcpp24HierarchicalStateMachineI13AsyncHsmState13AsyncHsmEventE12doTransitionERKNS3_16PendingEventInfoE
FNDA:1288,_ZN6hsmcpp24HierarchicalStateMachineI8AbcState8AbcEventE14onStateExitingES1_
FNDA:1,_ZN6hsmcpp24HierarchicalStateMachineI8AbcState8AbcEventE15makeVariantListIJRiS5_RPKcEEEvRSt6vectorINS_7VariantESaISA_EEDpOT_
FNDA:7,_ZN6hsmcpp24HierarchicalStateMachineI17TrafficLightState17TrafficLightEventE15makeVariantListIJRPKcEEEvRSt6vectorINS_7VariantESaIS9_EEDpOT_
FNDA:1,_ZN6hsmcpp24HierarchicalStateMachineI8AbcState8AbcEventE12transitionExIJiEEEbS2_bbiDpT_
FNDA:0,_ZN6hsmcpp24HierarchicalStateMachineI13AsyncHsmState13AsyncHsmEventE18dispatchTimerEventEi
FNDA:1,_ZN6hsmcpp24HierarchicalStateMachineI17TrafficLightState17TrafficLightEventE12transitionExIJiEEEbS2_bbiDpT_
FNDA:52,_ZN6hsmcpp24HierarchicalStateMachineI17TrafficLightState17TrafficLightEventE14TransitionInfoC2ES1_S1_NS3_14TransitionTypeERKSt8functionIFvRKSt6vectorINS_7VariantESaIS8_EEEERKS6_IFbSC_EEb
FNDA:26,_ZN6hsmcpp24HierarchicalStateMachineI17TrafficLightState17TrafficLightEventE16PendingEventInfo4waitEi
FNDA:1298,_ZN6hsmcpp24HierarchicalStateMachineI8AbcState8AbcEventE20findTransitionTargetES1_S2_RKSt6vectorINS_7VariantESaIS5_EEbRNSt7__cxx114listINS3_14TransitionInfoESaISC_EEE
FNDA:0,_ZN6hsmcpp24HierarchicalStateMachineI17TrafficLightState17TrafficLightEventED0Ev
FNDA:6,_ZN6hsmcpp24HierarchicalStateMachineI17TrafficLightState17TrafficLightEventE20isTransitionPossibleIJEEEbS2_DpT_
FNDA:14,_ZN6hsmcpp24HierarchicalStateMachineI13AsyncHsmState13AsyncHsmEventE13registerStateES1_St8functionIFvRKSt6vectorINS_7VariantESaIS6_EEEES4_IFbSA_EES4_IFbvEE
FNDA:91,_ZN6hsmcpp24HierarchicalStateMachineI8AbcState8AbcEventE14TransitionInfoC2ES1_S1_NS3_14TransitionTypeERKSt8functionIFvRKSt6vectorINS_7VariantESaIS8_EEEERKS6_IFbSC_EE
FNDA:52,_ZN6hsmcpp24HierarchicalStateMachineI17TrafficLightState17TrafficLightEventE16dumpActiveStatesEv
FNDA:83,_ZN6hsmcpp24HierarchicalStateMachineI8AbcState8AbcEventE13handleStartupEv
FNDA:5,_ZN6hsmcpp24HierarchicalStateMachineI13AsyncHsmState13AsyncHsmEventE13handleStartupEv
FNDA:1,_ZN6hsmcpp24HierarchicalStateMachineI13AsyncHsmState13AsyncHsmEventE18clearPendingEventsEv
FNDA:4,_ZN6hsmcpp24HierarchicalStateMachineI13AsyncHsmState13AsyncHsmEventE25transitionExWithArgsArrayES2_bbiRKSt6vectorINS_7VariantESaIS5_EE
FNDA:1223,_ZN6hsmcpp24HierarchicalStateMachineI8AbcState8AbcEventE12transitionExIJEEEbS2_bbiDpT_
FNDA:52,_ZNK6hsmcpp24HierarchicalStateMachineI17TrafficLightState17TrafficLightEventE12getStateNameB5cxx11ES1_
FNDA:1432,_ZN6hsmcpp24HierarchicalStateMachineI8AbcState8AbcEventE15onStateEnteringES1_RKSt6vectorINS_7VariantESaIS5_EE
FNDA:7,_ZN6hsmcpp24HierarchicalStateMachineI17TrafficLightState17TrafficLightEventE12transitionExIJPKcEEEbS2_bbiDpT_
FNDA:1346,_ZN6hsmcpp24HierarchicalStateMachineI8AbcState8AbcEventE18replaceActiveStateES1_S1_
FNDA:51,_ZN6hsmcpp24HierarchicalStateMachineI17TrafficLightState17TrafficLightEventE13registerStateI15TrafficLightHsmEEvS1_PT_MS6_FvRKSt6vectorINS_7VariantESaIS9_EEEMS6_FbSD_EMS6_FbvE
FNDA:15,_ZN6hsmcpp24HierarchicalStateMachineI17TrafficLightState17TrafficLightEventE14addActiveStateES1_
FNDA:4033,_ZN6hsmcpp24HierarchicalStateMachineI8AbcState8AbcEventE12logHsmActionENS3_12HsmLogActionES1_S1_S2_bRKSt6vectorINS_7VariantESaIS6_EE
FNDA:19,_ZN6hsmcpp24HierarchicalStateMachineI17TrafficLightState17TrafficLightEventED2Ev
FNDA:6,_ZN6hsmcpp24HierarchicalStateMachineI13AsyncHsmState13AsyncHsmEventE20findTransitionTargetES1_S2_RKSt6vectorINS_7VariantESaIS5_EEbRNSt7__cxx114listINS3_14TransitionInfoESaISC_EEE
FNDA:22,_ZNK6hsmcpp24HierarchicalStateMachineI13AsyncHsmState13AsyncHsmEventE14getEntryPointsES1_S2_RKSt6vectorINS_7VariantESaIS5_EERNSt7__cxx114listIS1_SaIS1_EEE
FNDA:35,_ZN6hsmcpp24HierarchicalStateMachineI17TrafficLightState17TrafficLightEventE18registerTransitionI15TrafficLightHsmEEvS1_S1_S2_PT_MS6_FvRKSt6vectorINS_7VariantESaIS9_EEEMS6_FbSD_Eb
FNDA:26,_ZN6hsmcpp24HierarchicalStateMachineI17TrafficLightState17TrafficLightEventE16PendingEventInfo8initLockEv
FNDA:22,_ZN6hsmcpp24HierarchicalStateMachineI13AsyncHsmState13AsyncHsmEventE16dumpActiveStatesEv
FNDA:0,_ZN6hsmcpp24HierarchicalStateMachineI13AsyncHsmState13AsyncHsmEventED0Ev
FNDA:15,_ZN6hsmcpp24HierarchicalStateMachineI17TrafficLightState17TrafficLightEventE13updateHistoryES1_RKNSt7__cxx114listIS1_SaIS1_EEE
FNDA:5,_ZN6hsmcpp24HierarchicalStateMachineI8AbcState8AbcEventE22registerSelfTransitionI6ABCHsmEEvS1_S2_NS3_14TransitionTypeEPT_MS7_FvRKSt6vectorINS_7VariantESaISA_EEEMS7_FbSE_Eb
FNDA:7,_ZN6hsmcpp24HierarchicalStateMachineI8AbcState8AbcEventE15makeVariantListIJRiEEEvRSt6vectorINS_7VariantESaIS7_EEDpOT_
FNDA:52,_ZN6hsmcpp24HierarchicalStateMachineI8AbcState8AbcEventE16registerSubstateES1_S1_
FNDA:6,_ZN6hsmcpp24HierarchicalStateMachineI17TrafficLightState17TrafficLightEventE26checkTransitionPossibilityIJEEEbS1_S2_DpT_
FNDA:26,_ZN6hsmcpp24HierarchicalStateMachineI17TrafficLightState17TrafficLightEventE14dispatchEventsEv
FNDA:2,_ZN6hsmcpp24HierarchicalStateMachineI13AsyncHsmState13AsyncHsmEventE16PendingEventInfo8initLockEv
FNDA:34,_ZN6hsmcpp24HierarchicalStateMachineI17TrafficLightState17TrafficLightEventE14onStateChangedES1_RKSt6vectorINS_7VariantESaIS5_EE
FNDA:112,_ZN6hsmcpp24HierarchicalStateMachineI8AbcState8AbcEventE16PendingEventInfo4waitEi
FNDA:13,_ZN6hsmcpp24HierarchicalStateMachineI8AbcState8AbcEventE18dispatchTimerEventEi
FNDA:84,_ZN6hsmcpp24HierarchicalStateMachineI8AbcState8AbcEventE10initializeERKSt10shared_ptrINS_19IHsmEventDispatcherEE
FNDA:8,_ZN6hsmcpp24HierarchicalStateMachineI13AsyncHsmState13AsyncHsmEventE16registerSubstateES1_S1_bS2_RKSt8functionIFbRKSt6vectorINS_7VariantESaIS6_EEEEb
FNDA:2422,_ZN6hsmcpp24HierarchicalStateMachineI8AbcState8AbcEventE14dispatchEventsEv
FNDA:57,_ZN6hsmcpp24HierarchicalStateMachineI17TrafficLightState17TrafficLightEventE13registerStateES1_St8functionIFvRKSt6vectorINS_7VariantESaIS6_EEEES4_IFbSA_EES4_IFbvEE
FNDA:0,_ZN6hsmcpp24HierarchicalStateMachineI17TrafficLightState17TrafficLightEventE14TransitionInfoC2ES1_S1_NS3_14TransitionTypeERKSt8functionIFvRKSt6vectorINS_7VariantESaIS8_EEEERKS6_IFbSC_EE
FNDA:1,_ZN6hsmcpp24HierarchicalStateMachineI17TrafficLightState17TrafficLightEventE15makeVariantListIJRiEEEvRSt6vectorINS_7VariantESaIS7_EEDpOT_
FNDA:26,_ZN6hsmcpp24HierarchicalStateMachineI17TrafficLightState17TrafficLightEventE25transitionExWithArgsArrayES2_bbiRKSt6vectorINS_7VariantESaIS5_EE
FNDA:10,_ZN6hsmcpp24HierarchicalStateMachineI8AbcState8AbcEventE15registerHistoryES1_S1_NS3_11HistoryTypeES1_St8functionIFvRKSt6vectorINS_7VariantESaIS7_EEEE
FNDA:16,_ZN6hsmcpp24HierarchicalStateMachineI17TrafficLightState17TrafficLightEventE12transitionExIJEEEbS2_bbiDpT_
FNDA:26,_ZN6hsmcpp24HierarchicalStateMachineI17TrafficLightState17TrafficLightEventE12doTransitionERKNS3_16PendingEventInfoE
FNDA:2,_ZN6hsmcpp24HierarchicalStateMachineI17TrafficLightState17TrafficLightEventE22registerSelfTransitionI15TrafficLightHsmEEvS1_S2_NS3_14TransitionTypeEPT_MS7_FvRKSt6vectorINS_7VariantESaISA_EEEMS7_FbSE_Eb
FNDA:2,_ZN6hsmcpp24HierarchicalStateMachineI17TrafficLightState17TrafficLightEventE12transitionExIJiPKcdbEEEbS2_bbiDpT_
FNDA:27,_ZN6hsmcpp24HierarchicalStateMachineI13AsyncHsmState13AsyncHsmEventE12logHsmActionENS3_12HsmLogActionES1_S1_S2_bRKSt6vectorINS_7VariantESaIS6_EE
FNDA:10,_ZN6hsmcpp24HierarchicalStateMachineI8AbcState8AbcEventE15makeVariantListIJRiS5_RbEEEvRSt6vectorINS_7VariantESaIS8_EEDpOT_
FNDA:0,_ZN6hsmcpp24HierarchicalStateMachineI8AbcState8AbcEventE18clearPendingEventsEv
FNDA:2,_ZN6hsmcpp24HierarchicalStateMachineI13AsyncHsmState13AsyncHsmEventE16PendingEventInfo4waitEi
FNDA:287,_ZN6hsmcpp24HierarchicalStateMachineI8AbcState8AbcEventE13registerStateES1_St8functionIFvRKSt6vectorINS_7VariantESaIS6_EEEES4_IFbSA_EES4_IFbvEE
FNDA:6,_ZN6hsmcpp24HierarchicalStateMachineI13AsyncHsmState13AsyncHsmEventE13updateHistoryES1_RKNSt7__cxx114listIS1_SaIS1_EEE
FNDA:6,_ZN6hsmcpp24HierarchicalStateMachineI8AbcState8AbcEventE19registerStateActionIJiEEEbS1_NS3_18StateActionTriggerENS3_11StateActionEDpT_
FNDA:11,_ZN6hsmcpp24HierarchicalStateMachineI13AsyncHsmState13AsyncHsmEventE18replaceActiveStateES1_S1_
FNDA:14,_ZN6hsmcpp24HierarchicalStateMachineI17TrafficLightState17TrafficLightEventE12isSubstateOfES1_S1_
FNDA:0,_ZN6hsmcpp24HierarchicalStateMachineI8AbcState8AbcEventE16PendingEventInfo11releaseLockEv
FNDA:11,_ZN6hsmcpp24HierarchicalStateMachineI13AsyncHsmState13AsyncHsmEventE14addActiveStateES1_
FNDA:212,_ZN6hsmcpp24HierarchicalStateMachineI8AbcState8AbcEventE18registerTransitionES1_S1_S2_St8functionIFvRKSt6vectorINS_7VariantESaIS6_EEEES4_IFbSA_EEb
FNDA:0,_ZN6hsmcpp24HierarchicalStateMachineI13AsyncHsmState13AsyncHsmEventE16PendingEventInfo11releaseLockEv
FNDA:0,_ZNK6hsmcpp24HierarchicalStateMachineI8AbcState8AbcEventE12getEventNameB5cxx11ES2_
FNDA:84,_ZN6hsmcpp24HierarchicalStateMachineI8AbcState8AbcEventEC2ES1_
FNDA:78,_ZN6hsmcpp24HierarchicalStateMachineI17TrafficLightState17TrafficLightEventE16PendingEventInfoD2Ev
FNDA:11,_ZN6hsmcpp24HierarchicalStateMachineI13AsyncHsmState13AsyncHsmEventE18registerTransitionES1_S1_S2_St8functionIFvRKSt6vectorINS_7VariantESaIS6_EEEES4_IFbSA_EEb
FNDA:26,_ZN6hsmcpp24HierarchicalStateMachineI17TrafficLightState17TrafficLightEventE22handleSingleTransitionES1_RKNS3_16PendingEventInfoE
FNDA:19,_ZN6hsmcpp24HierarchicalStateMachineI17TrafficLightState17TrafficLightEventE13handleStartupEv
FNDA:19,_ZN6hsmcpp24HierarchicalStateMachineI8AbcState8AbcEventE18registerFinalStateES1_S2_St8functionIFvRKSt6vectorINS_7VariantESaIS6_EEEES4_IFbSA_EES4_IFbvEE
FNDA:3,_ZN6hsmcpp24HierarchicalStateMachineI13AsyncHsmState13AsyncHsmEventE16registerSubstateES1_S1_
FNDA:35,_ZN6hsmcpp24HierarchicalStateMachineI17TrafficLightState17TrafficLightEventE15onStateEnteringES1_RKSt6vectorINS_7VariantESaIS5_EE
FNDA:112,_ZN6hsmcpp24HierarchicalStateMachineI8AbcState8AbcEventE16PendingEventInfo8initLockEv
FNDA:17,_ZN6hsmcpp24HierarchicalStateMachineI13AsyncHsmState13AsyncHsmEventE12isSubstateOfES1_S1_
FNDA:244,_ZN6hsmcpp24HierarchicalStateMachineI8AbcState8AbcEventE13registerStateI6ABCHsmEEvS1_PT_MS6_FvRKSt6vectorINS_7VariantESaIS9_EEEMS6_FbSD_EMS6_FbvE
FNDA:97,_ZN6hsmcpp24HierarchicalStateMachineI8AbcState8AbcEventE18registerTransitionI6ABCHsmEEvS1_S1_S2_PT_MS6_FvRKSt6vectorINS_7VariantESaIS9_EEEMS6_FbSD_Eb
FNDA:16,_ZN6hsmcpp24HierarchicalStateMachineI17TrafficLightState17TrafficLightEventE14onStateExitingES1_
FNDA:10,_ZN6hsmcpp24HierarchicalStateMachineI13AsyncHsmState13AsyncHsmEventE7releaseEv
FNDA:19,_ZN6hsmcpp24HierarchicalStateMachineI17TrafficLightState17TrafficLightEventE10initializeERKSt10shared_ptrINS_19IHsmEventDispatcherEE
FNDA:11,_ZN6hsmcpp24HierarchicalStateMachineI8AbcState8AbcEventED0Ev
FNDA:5,_ZN6hsmcpp24HierarchicalStateMachineI13AsyncHsmState13AsyncHsmEventE10initializeERKSt10shared_ptrINS_19IHsmEventDispatcherEE
FNDA:39,_ZNK6hsmcpp24HierarchicalStateMachineI13AsyncHsmState13AsyncHsmEventE12getStateNameB5cxx11ES1_
FNDA:1328,_ZN6hsmcpp24HierarchicalStateMachineI8AbcState8AbcEventE12doTransitionERKNS3_16PendingEventInfoE
FNDA:38,_ZN6hsmcpp24HierarchicalStateMachineI17TrafficLightState17TrafficLightEventE7releaseEv
FNDA:34,_ZNK6hsmcpp24HierarchicalStateMachineI17TrafficLightState17TrafficLightEventE14getEntryPointsES1_S2_RKSt6vectorINS_7VariantESaIS5_EERNSt7__cxx114listIS1_SaIS1_EEE
FNDA:2002,_ZNK6hsmcpp24HierarchicalStateMachineI8AbcState8AbcEventE12getStateNameB5cxx11ES1_
FNDA:1428,_ZN6hsmcpp24HierarchicalStateMachineI8AbcState8AbcEventE14onStateChangedES1_RKSt6vectorINS_7VariantESaIS5_EE
FNDA:2,_ZN6hsmcpp24HierarchicalStateMachineI8AbcState8AbcEventE15makeVariantListIJRPKcRiEEEvRSt6vectorINS_7VariantESaISA_EEDpOT_
FNDA:32,_ZN6hsmcpp24HierarchicalStateMachineI17TrafficLightState17TrafficLightEventE20findTransitionTargetES1_S2_RKSt6vectorINS_7VariantESaIS5_EEbRNSt7__cxx114listINS3_14TransitionInfoESaISC_EEE
FNDA:10,_ZN6hsmcpp24HierarchicalStateMachineI13AsyncHsmState13AsyncHsmEventE14dispatchEventsEv
FNDA:2768,_ZN6hsmcpp24HierarchicalStateMachineI8AbcState8AbcEventE16dumpActiveStatesEv
FNDA:9,_ZN6hsmcpp24HierarchicalStateMachineI13AsyncHsmState13AsyncHsmEventE13registerStateI8AsyncHsmEEvS1_PT_MS6_FvRKSt6vectorINS_7VariantESaIS9_EEEMS6_FbSD_EMS6_FbvE
FNDA:5,_ZN6hsmcpp24HierarchicalStateMachineI13AsyncHsmState13AsyncHsmEventEC2ES1_
FNDA:2,_ZN6hsmcpp24HierarchicalStateMachineI17TrafficLightState17TrafficLightEventE15makeVariantListIJRiRPKcRdRbEEEvRSt6vectorINS_7VariantESaISC_EEDpOT_
FNDA:217,_ZN6hsmcpp24HierarchicalStateMachineI8AbcState8AbcEventE14TransitionInfoC2ES1_S1_NS3_14TransitionTypeERKSt8functionIFvRKSt6vectorINS_7VariantESaIS8_EEEERKS6_IFbSC_EEb
FNDA:0,_ZNK6hsmcpp24HierarchicalStateMachineI13AsyncHsmState13AsyncHsmEventE12getEventNameB5cxx11ES2_
FNDA:16,_ZN6hsmcpp24HierarchicalStateMachineI13AsyncHsmState13AsyncHsmEventE14onStateChangedES1_RKSt6vectorINS_7VariantESaIS5_EE
FNDA:16,_ZN6hsmcpp24HierarchicalStateMachineI13AsyncHsmState13AsyncHsmEventE15onStateEnteringES1_RKSt6vectorINS_7VariantESaIS5_EE
FNDA:2,_ZN6hsmcpp24HierarchicalStateMachineI8AbcState8AbcEventE12transitionExIJPKciEEEbS2_bbiDpT_
FNDA:0,_ZNK6hsmcpp24HierarchicalStateMachineI17TrafficLightState17TrafficLightEventE12getEventNameB5cxx11ES2_
FNDA:1384,_ZN6hsmcpp24HierarchicalStateMachineI8AbcState8AbcEventE22handleSingleTransitionES1_RKNS3_16PendingEventInfoE
FNDA:5,_ZN6hsmcpp24HierarchicalStateMachineI8AbcState8AbcEventE22registerSelfTransitionES1_S2_NS3_14TransitionTypeESt8functionIFvRKSt6vectorINS_7VariantESaIS7_EEEES5_IFbSB_EEb
FNDA:27,_ZN6hsmcpp24HierarchicalStateMachineI13AsyncHsmState13AsyncHsmEventE16PendingEventInfoD2Ev
FNDA:18,_ZN6hsmcpp24HierarchicalStateMachineI17TrafficLightState17TrafficLightEventE16registerSubstateES1_S1_bS2_RKSt8functionIFbRKSt6vectorINS_7VariantESaIS6_EEEEb
FNDA:49,_ZN6hsmcpp24HierarchicalStateMachineI17TrafficLightState17TrafficLightEventE18executeStateActionES1_NS3_18StateActionTriggerE
FNDA:2715,_ZN6hsmcpp24HierarchicalStateMachineI8AbcState8AbcEventE18executeStateActionES1_NS3_18StateActionTriggerE
FNDA:2,_ZN6hsmcpp24HierarchicalStateMachineI17TrafficLightState17TrafficLightEventE22registerSelfTransitionES1_S2_NS3_14TransitionTypeESt8functionIFvRKSt6vectorINS_7VariantESaIS7_EEEES5_IFbSB_EEb
FNDA:12,_ZN6hsmcpp24HierarchicalStateMachineI17TrafficLightState17TrafficLightEventE16registerSubstateES1_S1_
FNDA:84,_ZN6hsmcpp24HierarchicalStateMachineI8AbcState8AbcEventED2Ev
FNDA:10,_ZN6hsmcpp24HierarchicalStateMachineI8AbcState8AbcEventE19registerStateActionIJiibEEEbS1_NS3_18StateActionTriggerENS3_11StateActionEDpT_
FNDA:11,_ZN6hsmcpp24HierarchicalStateMachineI13AsyncHsmState13AsyncHsmEventE14TransitionInfoC2ES1_S1_NS3_14TransitionTypeERKSt8functionIFvRKSt6vectorINS_7VariantESaIS8_EEEERKS6_IFbSC_EEb
FNDA:1,_ZN6hsmcpp24HierarchicalStateMachineI8AbcState8AbcEventE15registerHistoryI6ABCHsmEEvS1_S1_NS3_11HistoryTypeES1_PT_MS7_FvRKSt6vectorINS_7VariantESaISA_EEE
FNDA:0,_ZN6hsmcpp24HierarchicalStateMachineI17TrafficLightState17TrafficLightEventE18clearPendingEventsEv
FNDA:1535,_ZN6hsmcpp24HierarchicalStateMachineI8AbcState8AbcEventE12isSubstateOfES1_S1_
FNDA:3900,_ZN6hsmcpp24HierarchicalStateMachineI8AbcState8AbcEventE16PendingEventInfoD2Ev
FNDA:22,_ZN6hsmcpp24HierarchicalStateMachineI13AsyncHsmState13AsyncHsmEventE18executeStateActionES1_NS3_18StateActionTriggerE
FNDA:50,_ZN6hsmcpp24HierarchicalStateMachineI17TrafficLightState17TrafficLightEventE18registerTransitionES1_S1_S2_St8functionIFvRKSt6vectorINS_7VariantESaIS6_EEEES4_IFbSA_EEb
FNDA:127,_ZN6hsmcpp24HierarchicalStateMachineI8AbcState8AbcEventE16registerSubstateES1_S1_bS2_RKSt8functionIFbRKSt6vectorINS_7VariantESaIS6_EEEEb
FNDA:1256,_ZN6hsmcpp24HierarchicalStateMachineI8AbcState8AbcEventE13updateHistoryES1_RKNSt7__cxx114listIS1_SaIS1_EEE
FNDA:4,_ZN6hsmcpp24HierarchicalStateMachineI13AsyncHsmState13AsyncHsmEventE12transitionExIJEEEbS2_bbiDpT_
FNDA:1,_ZN6hsmcpp24HierarchicalStateMachineI8AbcState8AbcEventE19registerStateActionIJiiPKcEEEbS1_NS3_18StateActionTriggerENS3_11StateActionEDpT_
FNDA:5,_ZN6hsmcpp24HierarchicalStateMachineI13AsyncHsmState13AsyncHsmEventE14TransitionInfoC2ES1_S1_NS3_14TransitionTypeERKSt8functionIFvRKSt6vectorINS_7VariantESaIS8_EEEERKS6_IFbSC_EE
FNDA:5,_ZN6hsmcpp24HierarchicalStateMachineI13AsyncHsmState13AsyncHsmEventED2Ev
FNDA:1497,_ZNK6hsmcpp24HierarchicalStateMachineI8AbcState8AbcEventE14getEntryPointsES1_S2_RKSt6vectorINS_7VariantESaIS5_EERNSt7__cxx114listIS1_SaIS1_EEE
FNDA:0,_ZN6hsmcpp24HierarchicalStateMachineI17TrafficLightState17TrafficLightEventE16PendingEventInfo11releaseLockEv
FNDA:6,_ZN6hsmcpp24HierarchicalStateMachineI13AsyncHsmState13AsyncHsmEventE14onStateExitingES1_
FNDA:19,_ZN6hsmcpp24HierarchicalStateMachineI17TrafficLightState17TrafficLightEventEC2ES1_
FNDA:14,_ZN6hsmcpp24HierarchicalStateMachineI17TrafficLightState17TrafficLightEventE18replaceActiveStateES1_S1_
FNDA:0,_ZN6hsmcpp24HierarchicalStateMachineI17TrafficLightState17TrafficLightEventE18dispatchTimerEventEi
FNDA:1347,_ZN6hsmcpp24HierarchicalStateMachineI8AbcState8AbcEventE14addActiveStateES1_
FNDA:156,_ZN6hsmcpp24HierarchicalStateMachineI8AbcState8AbcEventE7releaseEv
FNF:140
FNH:127
DA:160,218
DA:167,250
DA:186,96
DA:191,96
DA:192,96
DA:193,96
DA:194,96
DA:195,96
DA:196,96
DA:197,96
DA:199,280
DA:205,280
DA:206,280
DA:207,280
DA:208,280
DA:209,280
DA:210,280
DA:211,280
DA:214,1376
DA:240,10
DA:243,10
DA:244,10
DA:245,10
DA:249,34
DA:538,2842
DA:541,2842
DA:543,6237
DA:544,6790
DA:548,2842
DA:602,108
DA:603,108
DA:606,108
DA:609,119
DA:611,108
DA:612,356
DA:615,30
DA:617,30
DA:619,24
DA:624,108
DA:627,108
DA:629,108
DA:633,108
DA:635,107
DA:637,107
DA:638,107
DA:640,107
DA:642,107
DA:643,0
DA:646,107
DA:648,107
DA:649,107
DA:650,107
DA:655,0
DA:656,0
DA:657,0
DA:675,108
DA:685,204
DA:687,204
DA:690,204
DA:694,204
DA:696,107
DA:697,107
DA:698,107
DA:699,107
DA:700,107
DA:702,204
DA:705,2
DA:707,2
DA:708,2
DA:712,19
DA:715,19
DA:720,304
DA:726,304
DA:727,304
DA:728,304
DA:730,304
DA:732,195
DA:734,193
DA:737,195
DA:739,45
DA:742,195
DA:744,44
DA:748,697
DA:749,542
DA:752,358
DA:758,716
DA:760,358
DA:764,358
DA:766,218
DA:768,218
DA:769,218
DA:770,218
DA:771,218
DA:774,218
DA:775,358
DA:791,19
DA:797,19
DA:798,38
DA:799,19
DA:803,1
DA:810,1
DA:812,1
DA:814,1
DA:816,1
DA:820,2
DA:821,1
DA:824,10
DA:830,10
DA:831,10
DA:832,10
DA:835,67
DA:838,67
DA:861,86
DA:867,86
DA:871,2
DA:873,11
DA:877,153
DA:884,153
DA:888,153
DA:890,153
DA:893,153
DA:895,196
DA:897,395
DA:899,47
DA:920,152
DA:924,149
DA:926,82
DA:928,82
DA:929,82
DA:930,82
DA:931,82
DA:933,82
DA:934,82
DA:936,149
DA:939,149
DA:941,149
DA:946,153
DA:951,17
DA:958,17
DA:959,17
DA:960,17
DA:962,17
DA:965,17
DA:966,10
DA:967,10
DA:968,20
DA:969,30
DA:970,10
DA:972,2
DA:974,2
DA:976,5
DA:977,5
DA:985,17
DA:986,17
DA:987,17
DA:992,17
DA:993,17
DA:997,132
DA:1005,132
DA:1006,132
DA:1008,132
DA:1010,47
DA:1012,47
DA:1015,47
DA:1017,5
DA:1021,269
DA:1022,179
DA:1025,273
DA:1032,273
DA:1038,273
DA:1042,7
DA:1049,7
DA:1050,7
DA:1052,7
DA:1054,7
DA:1056,7
DA:1059,7
DA:1061,0
DA:1065,14
DA:1066,14
DA:1069,7
DA:1075,7
DA:1081,7
DA:1084,76
DA:1086,76
DA:1088,76
DA:1090,75
DA:1097,49
DA:1099,49
DA:1103,4347
DA:1105,8694
DA:1110,1256
DA:1118,1256
DA:1120,1256
DA:1122,1269
DA:1123,1256
DA:1127,1115
DA:1132,1102
DA:1133,14
DA:1136,5
DA:1141,5
DA:1142,5
DA:1145,1261
DA:1154,1261
DA:1155,1261
DA:1157,1261
DA:1158,1261
DA:1160,1261
DA:1162,140
DA:1166,1261
DA:1168,1261
DA:1170,1
DA:1173,1261
DA:1174,1261
DA:1177,1261
DA:1179,1261
DA:1182,140
DA:1183,140
DA:1191,1261
DA:1192,1261
DA:1196,140
DA:1199,140
DA:1204,1
DA:1209,1
DA:1213,1
DA:1215,1
DA:1219,1
DA:1221,1
DA:1229,6
DA:1232,6
DA:1234,10
DA:1236,6
DA:1238,6
DA:1245,6
DA:1249,3
DA:1255,3
DA:1257,3
DA:1262,1
DA:1266,1
DA:1268,1
DA:1273,1
DA:1277,1
DA:1279,1
DA:1287,107
DA:1293,107
DA:1297,107
DA:1299,107
DA:1300,107
DA:1301,107
DA:1303,107
DA:1305,13
DA:1307,13
DA:1311,13
DA:1312,13
DA:1313,13
DA:1314,13
DA:1315,107
DA:1317,107
DA:1319,13
DA:1322,107
DA:1326,1279
DA:1328,1241
DA:1329,1268
DA:1330,30
DA:1333,2458
DA:1337,2458
DA:1339,2458
DA:1341,1363
DA:1344,1363
DA:1345,1363
DA:1346,1363
DA:1347,1363
DA:1349,1363
DA:1352,1363
DA:1353,0
DA:1355,2458
DA:1357,1184
DA:1360,2458
DA:1362,13
DA:1365,13
DA:1367,13
DA:1369,13
DA:1371,13
DA:1374,1310
DA:1377,1310
DA:1378,1310
DA:1380,1310
DA:1382,33
DA:1383,33
DA:1387,33
DA:1389,1308
DA:1392,1310
DA:1396,1483
DA:1400,1483
DA:1404,2966
DA:1406,1480
DA:1408,1480
DA:1410,54
DA:1411,54
DA:1415,54
DA:1417,1478
DA:1421,1483
DA:1425,1478
DA:1429,1478
DA:1431,1478
DA:1433,1273
DA:1434,1273
DA:1440,1478
DA:1443,2786
DA:1447,2786
DA:1448,2786
DA:1450,2786
DA:1452,16
DA:1454,12
DA:1455,12
DA:1456,12
DA:1457,4
DA:1458,4
DA:1459,4
DA:1465,34
DA:1467,18
DA:1469,18
DA:1471,22
DA:1472,11
DA:1473,11
DA:1474,11
DA:1476,7
DA:1478,1
DA:1480,6
DA:1482,1
DA:1484,5
DA:1486,5
DA:1488,5
DA:1490,1
DA:1492,3
DA:1494,2
DA:1498,5
DA:1499,5
DA:1506,2786
DA:1509,3137
DA:1512,3137
DA:1513,6274
DA:1514,1939
DA:1521,3137
DA:1523,475
DA:1524,334
DA:1530,1566
DA:1533,1566
DA:1537,3380
DA:1541,334
DA:1543,1566
DA:1547,10
DA:1549,10
DA:1550,20
DA:1551,10
DA:1558,10
DA:1560,10
DA:1568,1277
DA:1574,1277
DA:1576,2601
DA:1578,1324
DA:1581,2720
DA:1585,119
DA:1587,119
DA:1591,68
DA:1593,34
DA:1595,34
DA:1597,68
DA:1599,34
DA:1601,40
DA:1602,20
DA:1606,34
DA:1608,32
DA:1609,16
DA:1610,32
DA:1614,12
DA:1617,18
DA:1619,36
DA:1620,18
DA:1621,36
DA:1625,34
DA:1634,119
DA:1636,72
DA:1644,1277
DA:1648,6
DA:1654,6
DA:1655,6
DA:1657,6
DA:1658,6
DA:1660,6
DA:1665,6
DA:1667,6
DA:1669,0
DA:1670,0
DA:1672,0
DA:1674,0
DA:1676,0
DA:1685,6
DA:1687,6
DA:1689,6
DA:1690,6
DA:1694,6
DA:1695,6
DA:1698,1336
DA:1706,1336
DA:1710,1336
DA:1711,1336
DA:1713,1336
DA:1715,1336
DA:1717,62
DA:1719,4
DA:1730,2574
DA:1734,1300
DA:1735,14
DA:1737,1291
DA:1738,1291
DA:1742,1338
DA:1744,1338
DA:1747,1338
DA:1749,52
DA:1752,49
DA:1754,49
DA:1756,94
DA:1763,2
DA:1773,1291
DA:1776,47
DA:1777,1291
DA:1780,1336
DA:1783,1336
DA:1787,1363
DA:1790,1363
DA:1791,1363
DA:1792,1363
DA:1794,2854
DA:1798,2982
DA:1801,1491
DA:1803,1498
DA:1805,77
DA:1812,1491
DA:1814,1421
DA:1816,1421
DA:1818,75
DA:1819,75
DA:1820,75
DA:1822,1275
DA:1823,1275
DA:1824,1275
DA:1826,1275
DA:1828,1491
DA:1840,1363
DA:1842,12
DA:1846,1363
DA:1847,2726
DA:1850,1421
DA:1855,1421
DA:1856,1421
DA:1857,1421
DA:1858,1421
DA:1860,1421
DA:1864,1421
DA:1866,1330
DA:1874,91
DA:1876,66
DA:1879,66
DA:1881,98
DA:1883,32
DA:1885,196
DA:1887,8
DA:1891,66
DA:1897,66
DA:1899,66
DA:1901,66
DA:1903,66
DA:1905,130
DA:1907,134
DA:1915,66
DA:1917,25
DA:1920,25
DA:1928,1396
DA:1930,1353
DA:1931,1353
DA:1934,2733
DA:1936,1380
DA:1939,5
DA:1943,5
DA:1945,1380
DA:1953,2733
DA:1956,1380
DA:1959,1375
DA:1962,2647
DA:1965,1370
DA:1967,1310
DA:1969,1310
DA:1971,1368
DA:1981,1279
DA:1984,1277
DA:1986,2601
DA:1988,1324
DA:1994,3
DA:1996,1
DA:1998,1
DA:1999,1
DA:2000,1
DA:2008,1353
DA:2010,2729
DA:2013,1378
DA:2016,1440
DA:2017,1373
DA:2021,1373
DA:2023,18
DA:2026,1373
DA:2028,1371
DA:2030,1371
DA:2032,1368
DA:2036,1371
DA:2038,1371
DA:2040,15
DA:2043,1400
DA:2045,14
DA:2048,14
DA:2050,14
DA:2052,9
DA:2056,5
DA:2060,14
DA:2061,14
DA:2062,14
DA:2063,14
DA:2070,1356
DA:2072,1356
DA:2079,10
DA:2081,6
DA:2083,6
DA:2084,6
DA:2086,6
DA:2089,6
DA:2091,6
DA:2092,22
DA:2093,22
DA:2095,16
DA:2096,6
DA:2097,6
DA:2100,6
DA:2101,6
DA:2103,10
DA:2106,16
DA:2107,32
DA:2108,16
DA:2109,32
DA:2110,32
DA:2111,32
DA:2114,6
DA:2115,6
DA:2117,12
DA:2121,12
DA:2123,6
DA:2124,12
DA:2126,12
DA:2127,12
DA:2128,6
DA:2129,6
DA:2131,6
DA:2132,6
DA:2133,6
DA:2134,6
DA:2138,4
DA:2141,8
DA:2147,4
DA:2150,4
DA:2154,3
DA:2155,4
DA:2164,4
DA:2166,4
DA:2168,11
DA:2170,7
DA:2172,7
DA:2174,7
DA:2176,3
DA:2178,4
DA:2181,14
DA:2183,14
DA:2185,7
DA:2187,7
DA:2189,8
DA:2194,2677
DA:2195,1331
DA:2201,50
DA:2203,50
DA:2206,50
DA:2207,50
DA:2208,50
DA:2209,50
DA:2210,50
DA:2213,1296
DA:2220,1281
DA:2224,1371
DA:2227,4
DA:2230,2
DA:2231,2
DA:2232,2
DA:2242,1353
DA:2250,1421
DA:2252,1421
DA:2253,1421
DA:2256,1
DA:2260,1
DA:2263,0
DA:2265,0
DA:2269,1
DA:2270,1
DA:2276,4005
DA:2278,4145
DA:2281,140
DA:2282,280
DA:2283,140
DA:2285,5680
DA:2288,140
DA:2290,140
DA:2292,140
DA:2293,140
DA:2294,140
DA:2295,140
DA:2297,140
DA:2300,0
DA:2302,0
DA:2305,0
DA:2306,0
DA:2307,0
DA:2309,0
DA:2312,1643
DA:2314,0
DA:2318,140
DA:2320,140
DA:2323,140
DA:2326,140
DA:2330,0
DA:2336,508
DA:2340,140
DA:2341,140
DA:2344,1503
DA:2348,1503
DA:2351,353
DA:2353,213
DA:2355,1783
DA:2365,1338
DA:2367,2676
DA:2371,52
DA:2373,104
DA:2377,1553
DA:2382,1553
DA:2384,1553
DA:2386,1763
DA:2388,210
DA:2390,192
DA:2392,210
DA:2396,1553
DA:2400,1371
DA:2406,1371
DA:2408,1282
DA:2411,1371
DA:2415,1373
DA:2418,1373
DA:2420,2746
DA:2422,1370
DA:2423,1370
DA:2427,1373
DA:2433,507
DA:2435,507
DA:2437,507
DA:2441,358
DA:2443,358
DA:2445,358
DA:2447,0
DA:2458,349
DA:2461,349
DA:2463,729
DA:2465,428
DA:2467,48
DA:2468,47
DA:2469,1
DA:2479,2093
DA:2481,2093
DA:2483,2093
DA:2485,2093
DA:2488,2093
DA:2489,0
DA:2492,0
DA:2494,0
DA:2496,0
DA:2498,0
DA:2501,0
DA:2502,0
DA:2543,204
DA:2546,204
DA:2551,4136
DA:2559,4136
DA:2561,0
DA:2562,0
DA:2563,0
DA:2564,0
DA:2565,0
DA:2566,0
DA:2567,0
DA:2568,0
DA:2569,0
DA:2570,0
DA:2571,0
DA:2572,0
DA:2574,0
DA:2582,0
DA:2583,0
DA:2585,0
DA:2589,0
DA:2591,0
DA:2592,0
DA:2593,0
DA:2597,0
DA:2598,0
DA:2601,0
DA:2602,0
DA:2605,0
DA:2607,0
DA:2610,0
DA:2611,0
DA:2612,0
DA:2613,0
DA:2614,0
DA:2617,0
DA:2619,0
DA:2622,0
DA:2625,4136
LF:730
LH:667
end_of_record
TN:
SF:/home/runner/work/hsmcpp/hsmcpp/source/include/hsmcpp/os/common/UniqueLock.hpp
FNF:0
FNH:0
DA:25,302
DA:27,302
DA:36,151
DA:38,151
LF:4
LH:4
end_of_record
TN:
SF:/home/runner/work/hsmcpp/hsmcpp/source/include/hsmcpp/os/stl/ConditionVariable.hpp
FNF:0
FNH:0
DA:16,145
DA:31,301
DA:33,296
DA:34,280
LF:4
LH:4
end_of_record
TN:
SF:/home/runner/work/hsmcpp/hsmcpp/source/include/hsmcpp/os/stl/Mutex.hpp
FNF:0
FNH:0
DA:14,253
DA:17,8534
DA:19,8534
DA:22,8564
DA:24,8564
DA:27,151
DA:29,151
LF:7
LH:7
end_of_record
TN:
SF:/home/runner/work/hsmcpp/hsmcpp/source/include/hsmcpp/variant.hpp
FN:103,_ZN6hsmcpp7VariantC2ERKa
FN:104,_ZN6hsmcpp7VariantC2ERKs
FN:105,_ZN6hsmcpp7VariantC2ERKi
FN:106,_ZN6hsmcpp7VariantC2ERKl
FN:107,_ZN6hsmcpp7VariantC2ERKh
FN:108,_ZN6hsmcpp7VariantC2ERKt
FN:109,_ZN6hsmcpp7VariantC2ERKj
FN:110,_ZN6hsmcpp7VariantC2ERKm
FN:111,_ZN6hsmcpp7VariantC2ERKd
FN:112,_ZN6hsmcpp7VariantC2ERKb
FN:127,_ZN6hsmcpp7VariantaSERKa
FN:128,_ZN6hsmcpp7VariantaSERKs
FN:129,_ZN6hsmcpp7VariantaSERKi
FN:130,_ZN6hsmcpp7VariantaSERKl
FN:131,_ZN6hsmcpp7VariantaSERKh
FN:132,_ZN6hsmcpp7VariantaSERKt
FN:133,_ZN6hsmcpp7VariantaSERKj
FN:134,_ZN6hsmcpp7VariantaSERKm
FN:135,_ZN6hsmcpp7VariantaSERKd
FN:136,_ZN6hsmcpp7VariantaSERKb
FN:139,_ZN6hsmcpp7VariantaSERKSt6vectorIS0_SaIS0_EE
FN:140,_ZN6hsmcpp7VariantaSERKNSt7__cxx114listIS0_SaIS0_EEE
FN:142,_ZN6hsmcpp7VariantaSERKSt4pairIS0_S0_E
FN:196,_ZN6hsmcpp7Variant6assignISt3mapIS0_S0_St4lessIS0_ESaISt4pairIKS0_S0_EEEEEvRKT_NS0_4TypeE
FN:196,_ZN6hsmcpp7Variant6assignINSt7__cxx114listIS0_SaIS0_EEEEEvRKT_NS0_4TypeE
FN:196,_ZN6hsmcpp7Variant6assignISt6vectorIcSaIcEEEEvRKT_NS0_4TypeE
FN:196,_ZN6hsmcpp7Variant6assignINSt7__cxx1112basic_stringIcSt11char_traitsIcESaIcEEEEEvRKT_NS0_4TypeE
FN:196,_ZN6hsmcpp7Variant6assignISt4pairIS0_S0_EEEvRKT_NS0_4TypeE
FN:196,_ZN6hsmcpp7Variant6assignISt6vectorIS0_SaIS0_EEEEvRKT_NS0_4TypeE
FN:211,_ZN6hsmcpp7Variant4makeINSt7__cxx1112basic_stringIcSt11char_traitsIcESaIcEEEEES0_RKSt6vectorIT_SaIS9_EE
FN:211,_ZN6hsmcpp7Variant4makeIiEES0_RKSt6vectorIT_SaIS3_EE
FN:224,_ZN6hsmcpp7Variant4makeIiEES0_RKNSt7__cxx114listIT_SaIS4_EEE
FN:224,_ZN6hsmcpp7Variant4makeINSt7__cxx1112basic_stringIcSt11char_traitsIcESaIcEEEEES0_RKNS2_4listIT_SaIS9_EEE
FN:237,_ZN6hsmcpp7Variant4makeIiNSt7__cxx1112basic_stringIcSt11char_traitsIcESaIcEEEEES0_RKSt3mapIT_T0_St4lessIS9_ESaISt4pairIKS9_SA_EEE
FN:250,_ZNK6hsmcpp7Variant8toVectorIiEESt6vectorIT_SaIS3_EEv
FN:250,_ZNK6hsmcpp7Variant8toVectorINSt7__cxx1112basic_stringIcSt11char_traitsIcESaIcEEEEESt6vectorIT_SaIS9_EEv
FN:271,_ZNK6hsmcpp7Variant6toListINSt7__cxx1112basic_stringIcSt11char_traitsIcESaIcEEEEENS2_4listIT_SaIS9_EEEv
FN:271,_ZNK6hsmcpp7Variant6toListIiEENSt7__cxx114listIT_SaIS4_EEEv
FN:292,_ZNK6hsmcpp7Variant5toMapIiNSt7__cxx1112basic_stringIcSt11char_traitsIcESaIcEEEEESt3mapIT_T0_St4lessIS9_ESaISt4pairIKS9_SA_EEEv
FNDA:1,_ZN6hsmcpp7VariantC2ERKt
FNDA:105,_ZN6hsmcpp7Variant6assignINSt7__cxx1112basic_stringIcSt11char_traitsIcESaIcEEEEEvRKT_NS0_4TypeE
FNDA:1,_ZN6hsmcpp7VariantC2ERKm
FNDA:2,_ZN6hsmcpp7VariantaSERKj
FNDA:2,_ZN6hsmcpp7Variant4makeIiEES0_RKNSt7__cxx114listIT_SaIS4_EEE
FNDA:1,_ZN6hsmcpp7VariantC2ERKh
FNDA:148,_ZN6hsmcpp7VariantaSERKi
FNDA:2,_ZN6hsmcpp7Variant6assignISt6vectorIcSaIcEEEEvRKT_NS0_4TypeE
FNDA:1,_ZNK6hsmcpp7Variant5toMapIiNSt7__cxx1112basic_stringIcSt11char_traitsIcESaIcEEEEESt3mapIT_T0_St4lessIS9_ESaISt4pairIKS9_SA_EEEv
FNDA:2,_ZN6hsmcpp7VariantaSERKh
FNDA:2,_ZNK6hsmcpp7Variant8toVectorIiEESt6vectorIT_SaIS3_EEv
FNDA:7,_ZN6hsmcpp7VariantC2ERKi
FNDA:0,_ZN6hsmcpp7VariantaSERKSt6vectorIS0_SaIS0_EE
FNDA:2,_ZN6hsmcpp7VariantaSERKt
FNDA:2,_ZN6hsmcpp7Variant6assignINSt7__cxx114listIS0_SaIS0_EEEEEvRKT_NS0_4TypeE
FNDA:1,_ZNK6hsmcpp7Variant6toListINSt7__cxx1112basic_stringIcSt11char_traitsIcESaIcEEEEENS2_4listIT_SaIS9_EEEv
FNDA:1,_ZN6hsmcpp7Variant6assignISt3mapIS0_S0_St4lessIS0_ESaISt4pairIKS0_S0_EEEEEvRKT_NS0_4TypeE
FNDA:1,_ZN6hsmcpp7Variant4makeINSt7__cxx1112basic_stringIcSt11char_traitsIcESaIcEEEEES0_RKSt6vectorIT_SaIS9_EE
FNDA:1,_ZN6hsmcpp7VariantC2ERKj
FNDA:2,_ZN6hsmcpp7VariantaSERKm
FNDA:0,_ZN6hsmcpp7VariantaSERKSt4pairIS0_S0_E
FNDA:34,_ZN6hsmcpp7VariantaSERKb
FNDA:1,_ZN6hsmcpp7Variant4makeINSt7__cxx1112basic_stringIcSt11char_traitsIcESaIcEEEEES0_RKNS2_4listIT_SaIS9_EEE
FNDA:8,_ZN6hsmcpp7VariantaSERKa
FNDA:6,_ZN6hsmcpp7VariantaSERKs
FNDA:2,_ZNK6hsmcpp7Variant6toListIiEENSt7__cxx114listIT_SaIS4_EEEv
FNDA:11,_ZN6hsmcpp7VariantaSERKd
FNDA:1,_ZNK6hsmcpp7Variant8toVectorINSt7__cxx1112basic_stringIcSt11char_traitsIcESaIcEEEEESt6vectorIT_SaIS9_EEv
FNDA:1,_ZN6hsmcpp7VariantC2ERKl
FNDA:1,_ZN6hsmcpp7Variant6assignISt6vectorIS0_SaIS0_EEEEvRKT_NS0_4TypeE
FNDA:4,_ZN6hsmcpp7VariantaSERKl
FNDA:0,_ZN6hsmcpp7Variant6assignISt4pairIS0_S0_EEEvRKT_NS0_4TypeE
FNDA:1,_ZN6hsmcpp7VariantC2ERKd
FNDA:1,_ZN6hsmcpp7Variant4makeIiNSt7__cxx1112basic_stringIcSt11char_traitsIcESaIcEEEEES0_RKSt3mapIT_T0_St4lessIS9_ESaISt4pairIKS9_SA_EEE
FNDA:2,_ZN6hsmcpp7Variant4makeIiEES0_RKSt6vectorIT_SaIS3_EE
FNDA:4,_ZN6hsmcpp7VariantC2ERKb
FNDA:1,_ZN6hsmcpp7VariantC2ERKs
FNDA:1,_ZN6hsmcpp7VariantC2ERKa
FNDA:0,_ZN6hsmcpp7VariantaSERKNSt7__cxx114listIS0_SaIS0_EEE
FNF:39
FNH:35
DA:103,2
DA:104,2
DA:105,14
DA:106,2
DA:107,2
DA:108,2
DA:109,2
DA:110,2
DA:111,2
DA:112,8
DA:113,8
DA:116,2
DA:119,1
DA:120,1
DA:121,1
DA:127,16
DA:128,12
DA:129,296
DA:130,8
DA:131,4
DA:132,4
DA:133,4
DA:134,4
DA:135,22
DA:136,68
DA:137,97
DA:138,0
DA:139,0
DA:140,0
DA:141,0
DA:142,0
DA:144,30
DA:146,30
DA:160,501
DA:162,501
DA:196,349
DA:198,349
DA:199,349
DA:200,349
DA:201,111
DA:211,3
DA:213,3
DA:215,9
DA:217,12
DA:220,3
DA:224,3
DA:226,3
DA:228,9
DA:230,12
DA:233,3
DA:237,1
DA:239,1
DA:241,4
DA:243,6
DA:246,1
DA:250,3
DA:252,3
DA:254,3
DA:256,3
DA:258,3
DA:260,9
DA:262,6
DA:267,3
DA:268,0
DA:271,3
DA:273,3
DA:275,3
DA:277,3
DA:279,3
DA:281,9
DA:283,6
DA:288,3
DA:289,0
DA:292,1
DA:294,1
DA:296,1
DA:298,1
DA:300,1
DA:302,4
DA:304,3
DA:309,1
DA:310,0
LF:82
LH:74
end_of_record
TN:
SF:/home/runner/work/hsmcpp/hsmcpp/source/src/HsmEventDispatcherBase.cpp
FN:14,_ZN6hsmcpp22HsmEventDispatcherBaseD2Ev
FN:14,_ZN6hsmcpp22HsmEventDispatcherBaseD0Ev
FN:18,_ZN6hsmcpp22HsmEventDispatcherBase20registerEventHandlerERKSt8functionIFvvEE
FN:29,_ZN6hsmcpp22HsmEventDispatcherBase22unregisterEventHandlerEi
FN:37,_ZN6hsmcpp22HsmEventDispatcherBase9emitEventEi
FN:47,_ZN6hsmcpp22HsmEventDispatcherBase28registerEnqueuedEventHandlerERKSt8functionIFviEE
FN:58,_ZN6hsmcpp22HsmEventDispatcherBase30unregisterEnqueuedEventHandlerEi
FN:66,_ZN6hsmcpp22HsmEventDispatcherBase12enqueueEventEii
FN:72,_ZN6hsmcpp22HsmEventDispatcherBase20registerTimerHandlerERKSt8functionIFviEE
FN:81,_ZN6hsmcpp22HsmEventDispatcherBase22unregisterTimerHandlerEi
FN:104,_ZN6hsmcpp22HsmEventDispatcherBase10startTimerEiijb
FN:139,_ZN6hsmcpp22HsmEventDispatcherBase12restartTimerEi
FN:151,_ZN6hsmcpp22HsmEventDispatcherBase9stopTimerEi
FN:165,_ZN6hsmcpp22HsmEventDispatcherBase14isTimerRunningEi
FN:170,_ZN6hsmcpp22HsmEventDispatcherBase16getNextHandlerIDEv
FN:175,_ZN6hsmcpp22HsmEventDispatcherBase26unregisterAllEventHandlersEv
FN:181,_ZNK6hsmcpp22HsmEventDispatcherBase27getEnqueuedEventHandlerFuncEi
FN:194,_ZNK6hsmcpp22HsmEventDispatcherBase12getTimerInfoEi
FN:207,_ZNK6hsmcpp22HsmEventDispatcherBase19getTimerHandlerFuncEi
FN:220,_ZN6hsmcpp22HsmEventDispatcherBase14startTimerImplEijb
FN:225,_ZN6hsmcpp22HsmEventDispatcherBase13stopTimerImplEi
FN:230,_ZN6hsmcpp22HsmEventDispatcherBase16handleTimerEventEi
FN:254,_ZN6hsmcpp22HsmEventDispatcherBase21dispatchPendingEventsEv
FN:266,_ZN6hsmcpp22HsmEventDispatcherBase21dispatchPendingEventsERKNSt7__cxx114listIiSaIiEEE
FNDA:107,_ZN6hsmcpp22HsmEventDispatcherBase20registerEventHandlerERKSt8functionIFvvEE
FNDA:107,_ZN6hsmcpp22HsmEventDispatcherBaseD2Ev
FNDA:107,_ZN6hsmcpp22HsmEventDispatcherBase22unregisterTimerHandlerEi
FNDA:0,_ZN6hsmcpp22HsmEventDispatcherBaseD0Ev
FNDA:107,_ZN6hsmcpp22HsmEventDispatcherBase20registerTimerHandlerERKSt8functionIFviEE
FNDA:0,_ZN6hsmcpp22HsmEventDispatcherBase14isTimerRunningEi
FNDA:0,_ZN6hsmcpp22HsmEventDispatcherBase13stopTimerImplEi
FNDA:14,_ZN6hsmcpp22HsmEventDispatcherBase10startTimerEiijb
FNDA:2,_ZN6hsmcpp22HsmEventDispatcherBase9stopTimerEi
FNDA:13,_ZNK6hsmcpp22HsmEventDispatcherBase19getTimerHandlerFuncEi
FNDA:2433,_ZN6hsmcpp22HsmEventDispatcherBase9emitEventEi
FNDA:321,_ZN6hsmcpp22HsmEventDispatcherBase16getNextHandlerIDEv
FNDA:13,_ZNK6hsmcpp22HsmEventDispatcherBase12getTimerInfoEi
FNDA:2458,_ZN6hsmcpp22HsmEventDispatcherBase21dispatchPendingEventsEv
FNDA:107,_ZN6hsmcpp22HsmEventDispatcherBase26unregisterAllEventHandlersEv
FNDA:107,_ZN6hsmcpp22HsmEventDispatcherBase28registerEnqueuedEventHandlerERKSt8functionIFviEE
FNDA:2458,_ZN6hsmcpp22HsmEventDispatcherBase21dispatchPendingEventsERKNSt7__cxx114listIiSaIiEEE
FNDA:107,_ZN6hsmcpp22HsmEventDispatcherBase22unregisterEventHandlerEi
FNDA:13,_ZN6hsmcpp22HsmEventDispatcherBase16handleTimerEventEi
FNDA:0,_ZN6hsmcpp22HsmEventDispatcherBase14startTimerImplEijb
FNDA:107,_ZN6hsmcpp22HsmEventDispatcherBase30unregisterEnqueuedEventHandlerEi
FNDA:0,_ZNK6hsmcpp22HsmEventDispatcherBase27getEnqueuedEventHandlerFuncEi
FNDA:1,_ZN6hsmcpp22HsmEventDispatcherBase12enqueueEventEii
FNDA:2,_ZN6hsmcpp22HsmEventDispatcherBase12restartTimerEi
FNF:24
FNH:19
DA:14,107
DA:16,214
DA:18,107
DA:20,107
DA:21,107
DA:22,107
DA:24,107
DA:26,107
DA:27,107
DA:29,107
DA:31,107
DA:32,107
DA:34,107
DA:35,107
DA:37,2433
DA:39,2433
DA:40,2433
DA:42,2458
DA:45,2458
DA:47,107
DA:49,107
DA:50,107
DA:51,107
DA:53,107
DA:55,107
DA:56,107
DA:58,107
DA:60,107
DA:61,107
DA:63,107
DA:64,107
DA:66,1
DA:69,1
DA:72,107
DA:74,107
DA:76,107
DA:78,107
DA:81,107
DA:83,107
DA:85,107
DA:87,107
DA:89,11
DA:91,11
DA:92,11
DA:96,118
DA:100,107
DA:102,107
DA:104,14
DA:110,14
DA:111,28
DA:113,14
DA:115,14
DA:117,1
DA:118,1
DA:119,1
DA:122,1
DA:123,1
DA:127,13
DA:129,13
DA:130,13
DA:131,13
DA:133,13
DA:134,13
DA:137,14
DA:139,2
DA:141,2
DA:142,2
DA:144,2
DA:146,2
DA:147,2
DA:149,2
DA:151,2
DA:153,2
DA:154,2
DA:156,2
DA:158,2
DA:160,2
DA:161,2
DA:163,2
DA:165,0
DA:167,0
DA:170,321
DA:172,321
DA:175,107
DA:177,107
DA:178,107
DA:179,107
DA:181,0
DA:183,0
DA:184,0
DA:186,0
DA:188,0
DA:191,0
DA:192,0
DA:194,13
DA:196,13
DA:197,13
DA:199,13
DA:201,13
DA:204,13
DA:207,13
DA:209,13
DA:210,13
DA:212,13
DA:214,13
DA:217,13
DA:218,0
DA:220,0
DA:223,0
DA:225,0
DA:228,0
DA:230,13
DA:232,13
DA:233,13
DA:235,13
DA:237,13
DA:239,13
DA:241,13
DA:243,13
DA:245,13
DA:247,13
DA:248,13
DA:251,13
DA:254,2458
DA:256,2458
DA:258,2458
DA:259,2458
DA:260,2458
DA:261,2458
DA:263,2458
DA:264,2458
DA:266,2458
DA:268,2458
DA:270,312
DA:272,312
DA:274,312
DA:275,312
DA:276,312
DA:278,2770
DA:280,2458
DA:282,2458
DA:284,4916
DA:287,312
DA:288,2458
LF:144
LH:130
end_of_record
TN:
SF:/home/runner/work/hsmcpp/hsmcpp/source/src/HsmEventDispatcherGLibmm.cpp
FN:14,_ZN6hsmcpp24HsmEventDispatcherGLibmmC2Ev
FN:22,_ZN6hsmcpp24HsmEventDispatcherGLibmmC2ERKN4Glib6RefPtrINS1_11MainContextEEE
FN:29,_ZN6hsmcpp24HsmEventDispatcherGLibmmD0Ev
FN:29,_ZN6hsmcpp24HsmEventDispatcherGLibmmD2Ev
FN:42,_ZN6hsmcpp24HsmEventDispatcherGLibmm9emitEventEi
FN:52,_ZN6hsmcpp24HsmEventDispatcherGLibmm5startEv
FN:65,_ZN6hsmcpp24HsmEventDispatcherGLibmm26unregisterAllTimerHandlersEv
FN:75,_ZN6hsmcpp24HsmEventDispatcherGLibmm14startTimerImplEijb
FN:94,_ZN6hsmcpp24HsmEventDispatcherGLibmm13stopTimerImplEi
FN:106,_ZN6hsmcpp24HsmEventDispatcherGLibmm16onDispatchEventsEv
FN:113,_ZN6hsmcpp24HsmEventDispatcherGLibmm12onTimerEventEi
FNDA:13,_ZN6hsmcpp24HsmEventDispatcherGLibmm12onTimerEventEi
FNDA:16,_ZN6hsmcpp24HsmEventDispatcherGLibmm13stopTimerImplEi
FNDA:107,_ZN6hsmcpp24HsmEventDispatcherGLibmmC2Ev
FNDA:2458,_ZN6hsmcpp24HsmEventDispatcherGLibmm16onDispatchEventsEv
FNDA:2433,_ZN6hsmcpp24HsmEventDispatcherGLibmm9emitEventEi
FNDA:16,_ZN6hsmcpp24HsmEventDispatcherGLibmm14startTimerImplEijb
FNDA:107,_ZN6hsmcpp24HsmEventDispatcherGLibmm26unregisterAllTimerHandlersEv
FNDA:0,_ZN6hsmcpp24HsmEventDispatcherGLibmmC2ERKN4Glib6RefPtrINS1_11MainContextEEE
FNDA:107,_ZN6hsmcpp24HsmEventDispatcherGLibmmD2Ev
FNDA:0,_ZN6hsmcpp24HsmEventDispatcherGLibmmD0Ev
FNDA:107,_ZN6hsmcpp24HsmEventDispatcherGLibmm5startEv
FNF:11
FNH:9
DA:14,107
DA:15,107
DA:16,214
DA:18,107
DA:20,107
DA:22,0
DA:23,0
DA:24,0
DA:26,0
DA:27,0
DA:29,107
DA:31,107
DA:33,107
DA:35,107
DA:38,107
DA:39,107
DA:40,214
DA:42,2433
DA:44,2433
DA:45,2433
DA:47,2433
DA:48,2457
DA:50,2458
DA:52,107
DA:54,107
DA:56,107
DA:58,107
DA:59,107
DA:62,107
DA:65,107
DA:67,107
DA:69,0
DA:72,107
DA:73,107
DA:75,16
DA:78,16
DA:79,16
DA:81,16
DA:83,16
DA:85,16
DA:86,16
DA:87,16
DA:90,16
DA:92,16
DA:94,16
DA:96,16
DA:97,16
DA:99,16
DA:101,7
DA:102,7
DA:104,16
DA:106,2458
DA:108,2458
DA:110,2458
DA:111,2458
DA:113,13
DA:115,13
DA:116,13
DA:118,13
DA:121,9
DA:123,9
DA:125,9
DA:133,13
LF:63
LH:57
end_of_record
TN:
SF:/home/runner/work/hsmcpp/hsmcpp/source/src/os/common/LockGuard.cpp
FN:9,_ZN6hsmcpp9LockGuardC2ERNS_5MutexE
FN:14,_ZN6hsmcpp9LockGuardD2Ev
FNDA:8383,_ZN6hsmcpp9LockGuardC2ERNS_5MutexE
FNDA:8413,_ZN6hsmcpp9LockGuardD2Ev
FNF:2
FNH:2
DA:9,8383
DA:11,8383
DA:12,8467
DA:14,8413
DA:16,8413
DA:17,8475
LF:6
LH:6
end_of_record
TN:
SF:/home/runner/work/hsmcpp/hsmcpp/source/src/os/common/UniqueLock.cpp
FN:11,_ZN6hsmcpp10UniqueLockC2ERNS_5MutexE
FN:16,_ZN6hsmcpp10UniqueLockD2Ev
FN:21,_ZN6hsmcpp10UniqueLockC2EOS0_
FN:27,_ZN6hsmcpp10UniqueLockaSEOS0_
FN:43,_ZN6hsmcpp10UniqueLock4lockEv
FN:52,_ZN6hsmcpp10UniqueLock6unlockEv
FN:61,_ZN6hsmcpp10UniqueLock7releaseEv
FNDA:302,_ZN6hsmcpp10UniqueLock6unlockEv
FNDA:0,_ZN6hsmcpp10UniqueLockC2EOS0_
FNDA:151,_ZN6hsmcpp10UniqueLockC2ERNS_5MutexE
FNDA:151,_ZN6hsmcpp10UniqueLock4lockEv
FNDA:0,_ZN6hsmcpp10UniqueLock7releaseEv
FNDA:151,_ZN6hsmcpp10UniqueLockD2Ev
FNDA:0,_ZN6hsmcpp10UniqueLockaSEOS0_
FNF:7
FNH:4
DA:11,151
DA:13,151
DA:14,151
DA:16,151
DA:18,151
DA:19,151
DA:21,0
DA:23,0
DA:24,0
DA:25,0
DA:27,0
DA:29,0
DA:31,0
DA:34,0
DA:35,0
DA:37,0
DA:38,0
DA:40,0
DA:43,151
DA:45,151
DA:47,151
DA:48,151
DA:50,151
DA:52,302
DA:54,302
DA:56,151
DA:57,151
DA:59,302
DA:61,0
DA:63,0
DA:65,0
DA:66,0
DA:68,0
LF:33
LH:16
end_of_record
TN:
SF:/home/runner/work/hsmcpp/hsmcpp/source/src/os/stl/ConditionVariable.cpp
FN:8,_ZN6hsmcpp17ConditionVariableD2Ev
FN:13,_ZN6hsmcpp17ConditionVariable4waitERNS_10UniqueLockESt8functionIFbvEE
FN:46,_ZN6hsmcpp17ConditionVariable8wait_forERNS_10UniqueLockEiSt8functionIFbvEE
FNDA:144,_ZN6hsmcpp17ConditionVariable4waitERNS_10UniqueLockESt8functionIFbvEE
FNDA:150,_ZN6hsmcpp17ConditionVariableD2Ev
FNDA:7,_ZN6hsmcpp17ConditionVariable8wait_forERNS_10UniqueLockEiSt8functionIFbvEE
FNF:3
FNH:3
DA:8,150
DA:10,150
DA:11,150
DA:13,144
DA:15,144
DA:17,144
DA:19,0
DA:23,144
DA:28,144
DA:30,280
DA:34,4
DA:39,144
DA:41,144
DA:42,144
DA:44,144
DA:46,7
DA:48,7
DA:50,7
DA:52,0
DA:56,7
DA:59,7
DA:62,7
DA:64,7
DA:65,7
DA:68,7
DA:69,7
LF:26
LH:24
end_of_record
TN:
SF:/home/runner/work/hsmcpp/hsmcpp/source/src/variant.cpp
FN:10,_ZN6hsmcpp7Variant4makeEa
FN:11,_ZN6hsmcpp7Variant4makeEs
FN:12,_ZN6hsmcpp7Variant4makeEi
FN:13,_ZN6hsmcpp7Variant4makeEl
FN:14,_ZN6hsmcpp7Variant4makeEh
FN:15,_ZN6hsmcpp7Variant4makeEt
FN:16,_ZN6hsmcpp7Variant4makeEj
FN:17,_ZN6hsmcpp7Variant4makeEm
FN:18,_ZN6hsmcpp7Variant4makeEd
FN:19,_ZN6hsmcpp7Variant4makeEb
FN:20,_ZN6hsmcpp7Variant4makeERKNSt7__cxx1112basic_stringIcSt11char_traitsIcESaIcEEE
FN:21,_ZN6hsmcpp7Variant4makeEPKc
FN:22,_ZN6hsmcpp7Variant4makeERKSt6vectorIcSaIcEE
FN:23,_ZN6hsmcpp7Variant4makeEPKcm
FN:24,_ZN6hsmcpp7Variant4makeERKSt6vectorIS0_SaIS0_EE
FN:25,_ZN6hsmcpp7Variant4makeERKNSt7__cxx114listIS0_SaIS0_EEE
FN:26,_ZN6hsmcpp7Variant4makeERKSt3mapIS0_S0_St4lessIS0_ESaISt4pairIKS0_S0_EEE
FN:27,_ZN6hsmcpp7Variant4makeERKS0_S2_
FN:28,_ZN6hsmcpp7Variant4makeERKS0_
FN:30,_ZN6hsmcpp7VariantC2EPvNS0_4TypeE
FN:36,_ZN6hsmcpp7VariantD2Ev
FN:41,_ZN6hsmcpp7VariantC2ERKS0_
FN:46,_ZN6hsmcpp7VariantC2EOS0_
FN:57,_ZN6hsmcpp7VariantC2EPKc
FN:63,_ZN6hsmcpp7VariantC2EPKcm
FN:67,_ZN6hsmcpp7VariantaSERKS0_
FN:139,_ZN6hsmcpp7VariantaSEOS0_
FN:150,_ZNK6hsmcpp7VariantcvbEv
FN:155,_ZNK6hsmcpp7VariantneERKS0_
FN:160,_ZNK6hsmcpp7VariantgtERKS0_
FN:216,_ZNK6hsmcpp7VariantgeERKS0_
FN:221,_ZNK6hsmcpp7VariantltERKS0_
FN:226,_ZNK6hsmcpp7VariantleERKS0_
FN:231,_ZNK6hsmcpp7VarianteqERKS0_
FN:333,_ZNK6hsmcpp7Variant8isStringEv
FN:338,_ZNK6hsmcpp7Variant11isByteArrayEv
FN:343,_ZNK6hsmcpp7Variant8isVectorEv
FN:348,_ZNK6hsmcpp7Variant6isListEv
FN:353,_ZNK6hsmcpp7Variant12isDictionaryEv
FN:358,_ZNK6hsmcpp7Variant9isNumericEv
FN:391,_ZNK6hsmcpp7Variant15isSignedNumericEv
FN:413,_ZNK6hsmcpp7Variant17isUnsignedNumericEv
FN:434,_ZNK6hsmcpp7Variant6isBoolEv
FN:439,_ZNK6hsmcpp7Variant8toStringB5cxx11Ev
FN:535,_ZNK6hsmcpp7Variant11toByteArrayEv
FN:611,_ZNK6hsmcpp7Variant7toInt64Ev
FN:661,_ZNK6hsmcpp7Variant8toUInt64Ev
FN:711,_ZNK6hsmcpp7Variant8toDoubleEv
FN:761,_ZNK6hsmcpp7Variant6toBoolEv
FN:775,_ZNK6hsmcpp7Variant12isSameObjectERKS0_
FN:780,_ZN6hsmcpp7Variant10freeMemoryEv
FNDA:129,_ZN6hsmcpp7VariantC2EOS0_
FNDA:19,_ZN6hsmcpp7Variant4makeEb
FNDA:7,_ZN6hsmcpp7Variant4makeEd
FNDA:3,_ZN6hsmcpp7Variant4makeEh
FNDA:3,_ZN6hsmcpp7Variant4makeERKSt3mapIS0_S0_St4lessIS0_ESaISt4pairIKS0_S0_EEE
FNDA:0,_ZN6hsmcpp7Variant4makeERKS0_
FNDA:34,_ZNK6hsmcpp7Variant17isUnsignedNumericEv
FNDA:38,_ZNK6hsmcpp7Variant6isBoolEv
FNDA:5,_ZNK6hsmcpp7Variant8toDoubleEv
FNDA:11,_ZNK6hsmcpp7Variant6isListEv
FNDA:622,_ZN6hsmcpp7VariantD2Ev
FNDA:4,_ZN6hsmcpp7Variant4makeERKNSt7__cxx114listIS0_SaIS0_EEE
FNDA:0,_ZN6hsmcpp7Variant4makeERKS0_S2_
FNDA:78,_ZNK6hsmcpp7Variant9isNumericEv
FNDA:316,_ZN6hsmcpp7VariantaSERKS0_
FNDA:3,_ZN6hsmcpp7Variant4makeEt
FNDA:4,_ZNK6hsmcpp7Variant11isByteArrayEv
FNDA:1,_ZN6hsmcpp7Variant4makeERKSt6vectorIcSaIcEE
FNDA:148,_ZN6hsmcpp7VariantC2EPvNS0_4TypeE
FNDA:27,_ZNK6hsmcpp7VarianteqERKS0_
FNDA:3,_ZN6hsmcpp7Variant4makeEj
FNDA:22,_ZNK6hsmcpp7Variant6toBoolEv
FNDA:12,_ZNK6hsmcpp7Variant15isSignedNumericEv
FNDA:0,_ZN6hsmcpp7VariantaSEOS0_
FNDA:7,_ZN6hsmcpp7VariantC2EPKc
FNDA:11,_ZNK6hsmcpp7VariantneERKS0_
FNDA:316,_ZNK6hsmcpp7Variant12isSameObjectERKS0_
FNDA:3,_ZN6hsmcpp7Variant4makeEa
FNDA:3,_ZN6hsmcpp7Variant4makeEs
FNDA:0,_ZNK6hsmcpp7VariantcvbEv
FNDA:0,_ZNK6hsmcpp7VariantgeERKS0_
FNDA:312,_ZN6hsmcpp7VariantC2ERKS0_
FNDA:19,_ZN6hsmcpp7Variant4makeEPKc
FNDA:12,_ZNK6hsmcpp7Variant8toUInt64Ev
FNDA:51,_ZN6hsmcpp7Variant4makeEi
FNDA:11,_ZNK6hsmcpp7VariantltERKS0_
FNDA:31,_ZN6hsmcpp7Variant4makeERKNSt7__cxx1112basic_stringIcSt11char_traitsIcESaIcEEE
FNDA:0,_ZNK6hsmcpp7VariantleERKS0_
FNDA:1,_ZN6hsmcpp7VariantC2EPKcm
FNDA:11,_ZNK6hsmcpp7VariantgtERKS0_
FNDA:5,_ZNK6hsmcpp7Variant12isDictionaryEv
FNDA:3,_ZN6hsmcpp7Variant4makeEm
FNDA:971,_ZN6hsmcpp7Variant10freeMemoryEv
FNDA:26,_ZNK6hsmcpp7Variant8toStringB5cxx11Ev
FNDA:3,_ZN6hsmcpp7Variant4makeERKSt6vectorIS0_SaIS0_EE
FNDA:72,_ZNK6hsmcpp7Variant7toInt64Ev
FNDA:1,_ZN6hsmcpp7Variant4makeEPKcm
FNDA:4,_ZNK6hsmcpp7Variant11toByteArrayEv
FNDA:3,_ZN6hsmcpp7Variant4makeEl
FNDA:9,_ZNK6hsmcpp7Variant8isVectorEv
FNDA:19,_ZNK6hsmcpp7Variant8isStringEv
FNF:51
FNH:45
DA:10,3
DA:11,3
DA:12,51
DA:13,3
DA:14,3
DA:15,3
DA:16,3
DA:17,3
DA:18,7
DA:19,19
DA:20,62
DA:21,38
DA:22,1
DA:23,1
DA:24,3
DA:25,4
DA:26,3
DA:27,0
DA:28,0
DA:30,148
DA:31,148
DA:32,148
DA:34,148
DA:36,622
DA:38,622
DA:39,622
DA:41,312
DA:43,312
DA:44,312
DA:46,129
DA:48,129
DA:49,129
DA:51,129
DA:52,129
DA:53,129
DA:57,14
DA:59,7
DA:63,2
DA:65,1
DA:67,316
DA:69,316
DA:71,316
DA:73,8
DA:74,8
DA:75,8
DA:76,6
DA:77,6
DA:78,6
DA:79,148
DA:80,148
DA:81,148
DA:82,4
DA:83,4
DA:84,4
DA:86,2
DA:87,2
DA:88,2
DA:89,2
DA:90,2
DA:91,2
DA:92,2
DA:93,2
DA:94,2
DA:95,2
DA:96,2
DA:97,2
DA:99,11
DA:100,11
DA:101,11
DA:102,34
DA:103,34
DA:104,34
DA:106,97
DA:107,97
DA:110,0
DA:111,0
DA:114,0
DA:115,0
DA:116,0
DA:118,0
DA:119,0
DA:120,0
DA:122,0
DA:123,0
DA:126,0
DA:127,0
DA:128,0
DA:130,0
DA:131,0
DA:132,0
DA:136,316
DA:139,0
DA:141,0
DA:142,0
DA:144,0
DA:145,0
DA:147,0
DA:150,0
DA:152,0
DA:155,11
DA:157,11
DA:160,11
DA:162,11
DA:164,11
DA:166,11
DA:168,0
DA:170,11
DA:172,0
DA:176,11
DA:179,0
DA:181,0
DA:183,0
DA:185,0
DA:186,0
DA:188,0
DA:189,0
DA:190,0
DA:192,0
DA:193,0
DA:195,0
DA:197,0
DA:199,0
DA:200,0
DA:202,0
DA:204,0
DA:206,0
DA:213,11
DA:216,0
DA:218,0
DA:221,11
DA:223,11
DA:226,0
DA:228,0
DA:231,27
DA:233,27
DA:235,27
DA:237,27
DA:239,0
DA:240,0
DA:241,0
DA:242,0
DA:243,0
DA:244,0
DA:245,19
DA:246,19
DA:247,19
DA:248,0
DA:249,0
DA:250,0
DA:252,0
DA:253,0
DA:254,0
DA:255,0
DA:256,0
DA:257,0
DA:258,0
DA:259,0
DA:260,0
DA:261,0
DA:262,0
DA:263,0
DA:265,0
DA:266,0
DA:267,0
DA:268,0
DA:269,0
DA:270,0
DA:272,8
DA:273,8
DA:274,8
DA:276,0
DA:277,0
DA:278,0
DA:280,0
DA:281,0
DA:282,0
DA:284,0
DA:285,0
DA:286,0
DA:288,0
DA:289,0
DA:290,0
DA:291,0
DA:293,0
DA:295,0
DA:297,0
DA:299,0
DA:301,0
DA:303,0
DA:312,0
DA:313,0
DA:314,0
DA:315,0
DA:317,0
DA:321,0
DA:322,0
DA:323,0
DA:330,27
DA:333,19
DA:335,19
DA:338,4
DA:340,4
DA:343,9
DA:345,9
DA:348,11
DA:350,11
DA:353,5
DA:355,5
DA:358,78
DA:360,78
DA:362,78
DA:376,6
DA:377,6
DA:378,6
DA:379,6
DA:380,6
DA:381,6
DA:382,6
DA:383,6
DA:384,6
DA:385,6
DA:388,78
DA:391,12
DA:393,12
DA:395,12
DA:405,0
DA:406,0
DA:407,0
DA:410,12
DA:413,34
DA:415,34
DA:417,34
DA:426,22
DA:427,22
DA:428,22
DA:431,34
DA:434,38
DA:436,38
DA:439,26
DA:441,26
DA:443,26
DA:445,0
DA:446,0
DA:447,0
DA:448,0
DA:449,0
DA:450,0
DA:451,0
DA:452,0
DA:453,0
DA:454,0
DA:455,0
DA:456,0
DA:457,0
DA:458,0
DA:459,0
DA:460,0
DA:461,0
DA:462,0
DA:463,0
DA:464,0
DA:465,0
DA:466,0
DA:467,0
DA:468,0
DA:469,0
DA:470,0
DA:471,0
DA:472,0
DA:473,0
DA:475,26
DA:476,26
DA:478,0
DA:479,0
DA:480,0
DA:482,26
DA:485,0
DA:486,0
DA:487,0
DA:489,0
DA:491,0
DA:493,0
DA:496,0
DA:500,0
DA:501,0
DA:502,0
DA:504,0
DA:506,0
DA:508,0
DA:511,0
DA:515,0
DA:516,0
DA:517,0
DA:519,0
DA:521,0
DA:525,0
DA:526,0
DA:527,0
DA:532,26
DA:533,0
DA:535,4
DA:537,4
DA:539,4
DA:541,0
DA:542,0
DA:543,0
DA:544,0
DA:546,0
DA:547,0
DA:548,0
DA:549,0
DA:551,0
DA:552,0
DA:553,0
DA:554,0
DA:556,0
DA:557,0
DA:558,0
DA:559,0
DA:561,0
DA:562,0
DA:563,0
DA:565,0
DA:566,0
DA:567,0
DA:568,0
DA:569,0
DA:570,0
DA:572,0
DA:575,4
DA:576,4
DA:584,0
DA:585,0
DA:586,0
DA:588,0
DA:590,0
DA:592,0
DA:593,0
DA:596,0
DA:597,0
DA:598,0
DA:600,0
DA:601,0
DA:602,0
DA:603,0
DA:608,4
DA:609,0
DA:611,72
DA:613,72
DA:615,72
DA:617,3
DA:618,3
DA:619,3
DA:620,3
DA:621,3
DA:622,3
DA:623,61
DA:624,61
DA:625,61
DA:626,3
DA:627,3
DA:628,3
DA:630,0
DA:631,0
DA:632,0
DA:633,0
DA:634,0
DA:635,0
DA:636,0
DA:637,0
DA:638,0
DA:639,0
DA:640,0
DA:641,0
DA:643,1
DA:644,1
DA:645,1
DA:658,72
DA:661,12
DA:663,12
DA:665,12
DA:667,0
DA:668,0
DA:669,0
DA:670,0
DA:671,0
DA:672,0
DA:673,0
DA:674,0
DA:675,0
DA:676,0
DA:677,0
DA:678,0
DA:680,3
DA:681,3
DA:682,3
DA:683,3
DA:684,3
DA:685,3
DA:686,3
DA:687,3
DA:688,3
DA:689,3
DA:690,3
DA:691,3
DA:693,0
DA:694,0
DA:695,0
DA:708,12
DA:711,5
DA:713,5
DA:715,5
DA:717,0
DA:718,0
DA:719,0
DA:720,0
DA:721,0
DA:722,0
DA:723,0
DA:724,0
DA:725,0
DA:726,0
DA:727,0
DA:728,0
DA:730,0
DA:731,0
DA:732,0
DA:733,0
DA:734,0
DA:735,0
DA:736,0
DA:737,0
DA:738,0
DA:739,0
DA:740,0
DA:741,0
DA:743,5
DA:744,5
DA:745,5
DA:758,5
DA:761,22
DA:763,22
DA:765,22
DA:767,18
DA:769,4
DA:772,22
DA:775,316
DA:777,316
DA:780,971
DA:782,971
DA:784,12
DA:785,12
DA:787,10
DA:788,10
DA:790,206
DA:791,206
DA:793,8
DA:794,8
DA:797,6
DA:798,6
DA:800,6
DA:801,6
DA:803,6
DA:804,6
DA:806,6
DA:807,6
DA:810,19
DA:811,19
DA:813,57
DA:814,57
DA:817,136
DA:818,272
DA:821,4
DA:822,8
DA:825,7
DA:826,7
DA:829,9
DA:830,9
DA:833,5
DA:834,10
DA:837,0
DA:838,0
DA:845,971
DA:846,971
DA:847,971
LF:485
LH:230
end_of_record
